(i__main__
Stats
p0
(dp1
S'proxy_teachers'
p2
(lp3
(i__main__
Teacher
p4
(dp5
S'status'
p6
S'He is most probably in class 11C.'
p7
sS'assigned'
p8
(dp9
I0
I00
sI1
I00
sI2
S'5a'
p10
sI3
I00
sI4
I00
sI5
I00
sI6
S'3b'
p11
sI7
I00
ssS'first_name'
p12
S'Mulayam'
p13
sS'last_name'
p14
S'Modi'
p15
sS'sched'
p16
S"Note: 'f' stands for free session and 'r' stands for recess.\n\nSession  : 1\t2\t3\t4\tr\t5\t6\t7\t8\t\n________________________________________________________________________________\n\nMonday   : 8B\tf\t7C\t11C\tr\t11C\t7C\t7A\tf\t\nTuesday  : 8B\t11C\t9A\tf\tr\t8B\t7C\t7A\tf\t\nWednesday: 8B\t7C\tf\t10C\tr\tf\t11C\t7A\tf\t\nThursday : 8B\t8B\t11C\tf\tr\t7C\t7A\tf\t11C\t\nFriday   : 8B\tf\t7A\t7C\tr\tf\t8B\t11C\t11C\t\nSaturday : 7A\t11C\tf\t7C\tr\t7C\t10C\tf\t9A   <- today"
p17
sS'name'
p18
S'Mulayam Modi'
p19
sS'schedule'
p20
(lp21
(lp22
S'8b'
p23
aS'f'
p24
aS'7c'
p25
aS'11c'
p26
aS'11c'
p27
aS'7c'
p28
aS'7a'
p29
aS'f'
p30
aa(lp31
S'8b'
p32
aS'11c'
p33
aS'9a'
p34
aS'f'
p35
aS'8b'
p36
aS'7c'
p37
aS'7a'
p38
aS'f'
p39
aa(lp40
S'8b'
p41
aS'7c'
p42
aS'f'
p43
aS'10c'
p44
aS'f'
p45
aS'11c'
p46
aS'7a'
p47
aS'f'
p48
aa(lp49
S'8b'
p50
aS'8b'
p51
aS'11c'
p52
aS'f'
p53
aS'7c'
p54
aS'7a'
p55
aS'f'
p56
aS'11c'
p57
aa(lp58
S'8b'
p59
aS'f'
p60
aS'7a'
p61
aS'7c'
p62
aS'f'
p63
aS'8b'
p64
aS'11c'
p65
aS'11c'
p66
aa(lp67
S'7a'
p68
aS'11c'
p69
ag10
aS'7c'
p70
aS'7c'
p71
aS'10c'
p72
ag11
aS'9a'
p73
aasS'gender'
p74
S'male'
p75
sS'pres_pos'
p76
g69
sS'is_present'
p77
I01
sS'today_sched'
p78
g67
sS'tod_sched'
p79
S'Session:1\t2\x0e\t3\t\t4\tRECESS\t\t5\t6\t7\t\t8\t\nStatus :7A \t11C \t5A(proxy) \t7C \tSTAFF ROOM\t7C \t10C \t3B(proxy) \t9A \t'
p80
sS'classes'
p81
(lp82
S'10'
p83
aS'11'
p84
aS'7'
p85
aS'8'
p86
aS'9'
p87
asS'recess_pos'
p88
S'staff room'
p89
sS'saved_assignments'
p90
g9
sS'free_pos'
p91
S'library'
p92
sS'title_name'
p93
g13
sS'proxies'
p94
(lp95
(lp96
g4
a(i__main__
Teacher
p97
(dp98
g6
S'He is absent today.'
p99
sg8
(dp100
I0
I00
sI1
I00
sI2
g4
sI3
I00
sI4
I00
sI5
(i__main__
Teacher
p101
(dp102
g6
S'She is most probably in class 11S.'
p103
sg8
(dp104
I0
I00
sI1
I00
sI2
I00
sI3
I00
sI4
I00
sI5
S'8a'
p105
sI6
I00
sI7
I00
ssg12
S'Sonia'
p106
sg14
S'Yadav'
p107
sg16
S"Note: 'f' stands for free session and 'r' stands for recess.\n\nSession  : 1\t2\t3\t4\tr\t5\t6\t7\t8\t\n________________________________________________________________________________\n\nMonday   : 10B\t10B\t12S\t11S\tr\t11S\tf\t10A\t10A\t\nTuesday  : f\t11S\tf\t12S\tr\t12S\tf\t9B\t9B\t\nWednesday: 9C\t9C\t12S\tf\tr\t9B\t11S\tf\tf\t\nThursday : 12S\t12S\t11S\tf\tr\t9A\t9A\t10B\t11S\t\nFriday   : f\t10C\t10C\t9A\tr\tf\t12S\t11S\t11S\t\nSaturday : f\t11S\t12S\t12S\tr\t9C\tf\t10C\t10A   <- today"
p108
sg18
S'Sonia Yadav'
p109
sg20
(lp110
(lp111
S'10b'
p112
aS'10b'
p113
aS'12s'
p114
aS'11s'
p115
aS'11s'
p116
aS'f'
p117
aS'10a'
p118
aS'10a'
p119
aa(lp120
S'f'
p121
aS'11s'
p122
aS'f'
p123
aS'12s'
p124
aS'12s'
p125
aS'f'
p126
aS'9b'
p127
aS'9b'
p128
aa(lp129
S'9c'
p130
aS'9c'
p131
aS'12s'
p132
aS'f'
p133
aS'9b'
p134
aS'11s'
p135
aS'f'
p136
aS'f'
p137
aa(lp138
S'12s'
p139
aS'12s'
p140
aS'11s'
p141
aS'f'
p142
aS'9a'
p143
aS'9a'
p144
aS'10b'
p145
aS'11s'
p146
aa(lp147
S'f'
p148
aS'10c'
p149
aS'10c'
p150
aS'9a'
p151
aS'f'
p152
aS'12s'
p153
aS'11s'
p154
aS'11s'
p155
aa(lp156
S'f'
p157
aS'11s'
p158
aS'12s'
p159
aS'12s'
p160
aS'9c'
p161
ag105
aS'10c'
p162
aS'10a'
p163
aasg74
S'female'
p164
sg76
g158
sg77
I01
sg78
g156
sg79
S"Note:'*' denotes that Sonia is free in, or somewhere around biology lab.\n\nSession:1\t\t2\x0e\t3\t4\tRECESS\t5\t6\t\t7\t8\t\nStatus :biology lab* \t11S \t12S \t12S \tGROUND\t9C \t8A(proxy) \t10C \t10A \t"
p165
sg81
(lp166
S'10'
p167
aS'11'
p168
aS'12'
p169
aS'9'
p170
asg88
S'ground'
p171
sg90
g104
sg91
S'biology lab'
p172
sg93
g109
sg94
(lp173
(lp174
g101
ag97
ag105
aI5
aasS'subjects'
p175
(lp176
S'biology'
p177
asS'history'
p178
(dp179
sbsI6
I00
sI7
(i__main__
Teacher
p180
(dp181
g6
S'He is most probably in class 12S.'
p182
sg8
(dp183
I0
I00
sI1
I00
sI2
I00
sI3
I00
sI4
I00
sI5
I00
sI6
I00
sI7
S'6a'
p184
ssg12
S'Albert'
p185
sg14
S'Newton'
p186
sg16
S"Note: 'f' stands for free session and 'r' stands for recess.\n\nSession  : 1\t2\t3\t4\tr\t5\t6\t7\t8\t\n________________________________________________________________________________\n\nMonday   : 9A\t9B\t10A\t10B\tr\tf\t11S\t12S\tf\t\nTuesday  : 10B\t10A\tf\tf\tr\t9A\t12S\t12S\tf\t\nWednesday: 10B\t12S\t10B\tf\tr\tf\t9A\tf\t10A\t\nThursday : 11S\t10A\t10B\t11S\tr\t12S\t9B\tf\tf\t\nFriday   : f\t9A\t9B\t10A\tr\t10B\t11S\t10A\tf\t\nSaturday : f\t12S\t10A\t10B\tr\t9A\t9B\t12S\tf   <- today"
p187
sg18
S'Albert Newton'
p188
sg20
(lp189
(lp190
S'9a'
p191
aS'9b'
p192
aS'10a'
p193
aS'10b'
p194
aS'f'
p195
aS'11s'
p196
aS'12s'
p197
aS'f'
p198
aa(lp199
S'10b'
p200
aS'10a'
p201
aS'f'
p202
aS'f'
p203
aS'9a'
p204
aS'12s'
p205
aS'12s'
p206
aS'f'
p207
aa(lp208
S'10b'
p209
aS'12s'
p210
aS'10b'
p211
aS'f'
p212
aS'f'
p213
aS'9a'
p214
aS'f'
p215
aS'10a'
p216
aa(lp217
S'11s'
p218
aS'10a'
p219
aS'10b'
p220
aS'11s'
p221
aS'12s'
p222
aS'9b'
p223
aS'f'
p224
aS'f'
p225
aa(lp226
S'f'
p227
aS'9a'
p228
aS'9b'
p229
aS'10a'
p230
aS'10b'
p231
aS'11s'
p232
aS'10a'
p233
aS'f'
p234
aa(lp235
S'f'
p236
aS'12s'
p237
aS'10a'
p238
aS'10b'
p239
aS'9a'
p240
aS'9b'
p241
aS'12s'
p242
ag184
aasg74
S'male'
p243
sg76
g237
sg77
I01
sg78
g235
sg79
S"Note:'*' denotes that Albert is free in, or somewhere around physics lab.\n\nSession:1\t\t2\x0e\t3\t4\tRECESS\t5\t6\t7\t8\t\t\nStatus :physics lab* \t12S \t10A \t10B \tGROUND\t9A \t9B \t12S \t6A(proxy) \t"
p244
sg81
(lp245
S'10'
p246
aS'11'
p247
aS'12'
p248
aS'9'
p249
asg88
S'ground'
p250
sg90
g183
sg91
S'physics lab'
p251
sg93
g185
sg94
(lp252
(lp253
g180
ag97
ag184
aI7
aasg175
(lp254
S' maths'
p255
aS'physics'
p256
asg178
(dp257
sbssg12
S'Narendra'
p258
sg14
S'Gandhi'
p259
sg16
S"Note: 'f' stands for free session and 'r' stands for recess.\n\nSession  : 1\t2\t3\t4\tr\t5\t6\t7\t8\t\n________________________________________________________________________________\n\nMonday   : 5A\tf\t6A\t7B\tr\t8A\t7A\t6A\tf\t\nTuesday  : 5A\t6A\tf\tf\tr\t5A\t6A\tf\t7B\t\nWednesday: 5A\t7A\t6A\tf\tr\t7B\t5B\tf\t6A\t\nThursday : f\t7B\tf\t3C\tr\t6A\t5A\tf\t7A\t\nFriday   : 5A\tf\t7C\t6A\tr\tf\t5A\tf\tf\t\nSaturday : f\t7B\t5A\tf\tr\t7A\t8A\tf\t6A   <- today"
p260
sg18
S'Narendra Gandhi'
p261
sg20
(lp262
(lp263
S'5a'
p264
aS'f'
p265
aS'6a'
p266
aS'7b'
p267
aS'8a'
p268
aS'7a'
p269
aS'6a'
p270
aS'f'
p271
aa(lp272
S'5a'
p273
aS'6a'
p274
aS'f'
p275
aS'f'
p276
aS'5a'
p277
aS'6a'
p278
aS'f'
p279
aS'7b'
p280
aa(lp281
S'5a'
p282
aS'7a'
p283
aS'6a'
p284
aS'f'
p285
aS'7b'
p286
aS'5b'
p287
aS'f'
p288
aS'6a'
p289
aa(lp290
S'f'
p291
aS'7b'
p292
aS'f'
p293
aS'3c'
p294
aS'6a'
p295
aS'5a'
p296
aS'f'
p297
aS'7a'
p298
aa(lp299
S'5a'
p300
aS'f'
p301
aS'7c'
p302
aS'6a'
p303
aS'f'
p304
aS'5a'
p305
aS'f'
p306
aS'f'
p307
aa(lp308
S'f'
p309
aS'7b'
p310
ag10
aS'f'
p311
aS'7a'
p312
ag105
aS'f'
p313
ag184
aasg74
S'male'
p314
sg77
I00
sg78
g308
sg79
S'(He is absent today.)\n\nSession:1\t\t2\x0e\t3\t4\t\tRECESS\t5\t6\t7\t\t8\t\nStatus :library \t7B \t5A \tlibrary \tGROUND\t7A \t8A \tlibrary \t6A \t'
p315
sg81
(lp316
S'5'
p317
aS'6'
p318
aS'7'
p319
aS'8'
p320
asg88
S'ground'
p321
sg90
g100
sg91
S'library'
p322
sg93
g258
sg94
(lp323
g96
ag174
ag253
asg175
(lp324
S'Gujarati'
p325
aS'Spanish'
p326
asg178
(dp327
sbag10
aI2
aa(lp328
g4
a(i__main__
Teacher
p329
(dp330
g6
S'He is absent today.'
p331
sg8
(dp332
I0
I00
sI1
I00
sI2
I00
sI3
I00
sI4
I00
sI5
I00
sI6
g4
sI7
I00
ssg12
S'Rahul'
p333
sg14
S'Yadav'
p334
sg16
S"Note: 'f' stands for free session and 'r' stands for recess.\n\nSession  : 1\t2\t3\t4\tr\t5\t6\t7\t8\t\n________________________________________________________________________________\n\nMonday   : f\t6B\t4A\t5C\tr\t1A\t2A\t3A\tf\t\nTuesday  : f\tf\t2C\t1A\tr\t3A\t5A\t1B\t4C\t\nWednesday: f\t1C\t4B\t4A\tr\t4C\t7B\tf\t3C\t\nThursday : f\t3B\t2A\t2B\tr\tf\t6A\t5C\t7C\t\nFriday   : f\t5A\t7B\t2C\tr\t3C\t6C\t5B\tf\t\nSaturday : f\t1C\t4B\t2B\tr\tf\t5B\t3B\t7A   <- today"
p335
sg18
S'Rahul Yadav'
p336
sg20
(lp337
(lp338
S'f'
p339
aS'6b'
p340
aS'4a'
p341
aS'5c'
p342
aS'1a'
p343
aS'2a'
p344
aS'3a'
p345
aS'f'
p346
aa(lp347
S'f'
p348
aS'f'
p349
aS'2c'
p350
aS'1a'
p351
aS'3a'
p352
aS'5a'
p353
aS'1b'
p354
aS'4c'
p355
aa(lp356
S'f'
p357
aS'1c'
p358
aS'4b'
p359
aS'4a'
p360
aS'4c'
p361
aS'7b'
p362
aS'f'
p363
aS'3c'
p364
aa(lp365
S'f'
p366
aS'3b'
p367
aS'2a'
p368
aS'2b'
p369
aS'f'
p370
aS'6a'
p371
aS'5c'
p372
aS'7c'
p373
aa(lp374
S'f'
p375
aS'5a'
p376
aS'7b'
p377
aS'2c'
p378
aS'3c'
p379
aS'6c'
p380
aS'5b'
p381
aS'f'
p382
aa(lp383
S'f'
p384
aS'1c'
p385
aS'4b'
p386
aS'2b'
p387
aS'f'
p388
aS'5b'
p389
ag11
aS'7a'
p390
aasg74
S'male'
p391
sg77
I00
sg78
g383
sg79
S'(He is absent today.)\n\nSession:1\t\t2\x0e\t3\t4\tRECESS\t\t5\t\t6\t7\t8\t\nStatus :music room \t1C \t4B \t2B \tSTAFF ROOM\tmusic room \t5B \t3B \t7A \t'
p392
sg81
(lp393
S'1'
p394
aS'2'
p395
aS'3'
p396
aS'4'
p397
aS'5'
p398
aS'6'
p399
asg88
S'staff room'
p400
sg90
g332
sg91
S'music room'
p401
sg93
g333
sg94
(lp402
g328
asg175
(lp403
S'Civics'
p404
aS'Music'
p405
asg178
(dp406
sbag11
aI6
aasg175
(lp407
S'economics'
p408
aS'hindi'
p409
aS'social science'
p410
asg178
(dp411
sbag101
ag180
asS'pres_teachers'
p412
(lp413
g4
ag180
ag101
asS'abs_teachers'
p414
(lp415
g97
ag329
a(i__main__
Teacher
p416
(dp417
g6
S'She is absent today.'
p418
sg8
(dp419
I0
I00
sI1
I00
sI2
I00
sI3
I00
sI4
I00
sI5
I00
sI6
I00
sI7
I00
ssg12
S'Sonia'
p420
sg14
S'Singh'
p421
sg16
S"Note: 'f' stands for free session and 'r' stands for recess.\n\nSession  : 1\t2\t3\t4\tr\t5\t6\t7\t8\t\n________________________________________________________________________________\n\nMonday   : 10A\t10A\t11S\tf\tr\t12S\t9C\t10C\tf\t\nTuesday  : 10A\t12S\t12S\t11S\tr\tf\tf\t10B\t11S\t\nWednesday: 11S\t11S\t10A\t10B\tr\tf\t9B\tf\tf\t\nThursday : 10C\t11S\t12S\tf\tr\tf\t10A\t12S\t12S\t\nFriday   : f\t11S\t9A\t12S\tr\t11S\tf\t12S\t12S\t\nSaturday : f\tf\t11S\t11S\tr\t12S\t12S\tf\tf   <- today"
p422
sg18
S'Sonia Singh'
p423
sg20
(lp424
(lp425
S'10a'
p426
aS'10a'
p427
aS'11s'
p428
aS'f'
p429
aS'12s'
p430
aS'9c'
p431
aS'10c'
p432
aS'f'
p433
aa(lp434
S'10a'
p435
aS'12s'
p436
aS'12s'
p437
aS'11s'
p438
aS'f'
p439
aS'f'
p440
aS'10b'
p441
aS'11s'
p442
aa(lp443
S'11s'
p444
aS'11s'
p445
aS'10a'
p446
aS'10b'
p447
aS'f'
p448
aS'9b'
p449
aS'f'
p450
aS'f'
p451
aa(lp452
S'10c'
p453
aS'11s'
p454
aS'12s'
p455
aS'f'
p456
aS'f'
p457
aS'10a'
p458
aS'12s'
p459
aS'12s'
p460
aa(lp461
S'f'
p462
aS'11s'
p463
aS'9a'
p464
aS'12s'
p465
aS'11s'
p466
aS'f'
p467
aS'12s'
p468
aS'12s'
p469
aa(lp470
S'f'
p471
aS'f'
p472
aS'11s'
p473
aS'11s'
p474
aS'12s'
p475
aS'12s'
p476
aS'f'
p477
aS'f'
p478
aasg74
S'female'
p479
sg77
I00
sg78
g470
sg79
S'(She is absent today.)\n\nSession:1\t\t2\x0e\t\t3\t4\tRECESS\t\t5\t6\t7\t\t8\t\t\nStatus :chemistry lab \tchemistry lab \t11S \t11S \tCHEMISTRY LAB\t12S \t12S \tchemistry lab \tchemistry lab \t'
p480
sg81
(lp481
S'10'
p482
aS'11'
p483
aS'12'
p484
aS'9'
p485
asg88
S'chemistry lab'
p486
sg90
g419
sg91
S'chemistry lab'
p487
sg93
g423
sg94
(lp488
sg175
(lp489
S'chemistry'
p490
asg178
(dp491
sbasS'custom_proxies'
p492
(lp493
sS'removed_proxies'
p494
(lp495
sS's_proxies'
p496
(lp497
g96
a(lp498
g4
ag329
ag386
aI2
aa(lp499
g4
ag416
ag473
aI2
aag174
a(lp500
g101
ag329
ag389
aI5
aa(lp501
g101
ag416
ag476
aI5
aag328
ag253
a(lp502
g180
ag329
ag390
aI7
aasS'gen_proxies'
p503
(lp504
g96
ag174
ag328
ag253
asS'clamoni'
p505
(dp506
g310
(lp507
I1
asg312
(lp508
I4
aI7
asg386
(lp509
I2
asg473
(lp510
I2
aI3
asg385
(lp511
I1
asg475
(lp512
I4
aI5
asg387
(lp513
I3
asg389
(lp514
I5
assS'teachers'
p515
(lp516
g4
ag329
ag180
ag101
ag97
ag416
asS'comp_proxies'
p517
(lp518
g96
ag174
ag328
ag253
asg94
(lp519
g96
ag174
ag328
ag253
asb.