(i__main__
Stats
p0
(dp1
S'proxy_teachers'
p2
(lp3
(i__main__
Teacher
p4
(dp5
S'status'
p6
S'She is most probably in class 12S.'
p7
sS'last_name'
p8
S'Singh'
p9
sS'sched'
p10
S"Note: 'f' stands for free session and 'r' stands for recess.\n\nSession  : 1\t2\t3\t4\tr\t5\t6\t7\t8\t\n________________________________________________________________________________\n\nMonday   : 10A\t10A\t11S\tf\tr\t12S\t9C\t10C\tf\t\nTuesday  : 10A\t12S\t12S\t11S\tr\tf\tf\t10B\t11S\t\nWednesday: 11S\t11S\t10A\t10B\tr\tf\t9B\tf\tf\t\nThursday : 10C\t11S\t12S\tf\tr\tf\t10A\t12S\t12S\t\nFriday   : f\t11S\t9A\t12S\tr\t11S\tf\t12S\t12S\t\nSaturday : f\tf\t11S\t11S\tr\t12S\t12S\tf\tf"
p11
sS'schedule'
p12
(lp13
(lp14
S'10a'
p15
aS'10a'
p16
aS'11s'
p17
aS'f'
p18
aS'12s'
p19
aS'9c'
p20
aS'10c'
p21
aS'f'
p22
aa(lp23
S'10a'
p24
aS'12s'
p25
aS'12s'
p26
aS'11s'
p27
aS'f'
p28
aS'f'
p29
aS'10b'
p30
aS'11s'
p31
aa(lp32
S'11s'
p33
aS'11s'
p34
aS'10a'
p35
aS'10b'
p36
aS'f'
p37
aS'9b'
p38
aS'f'
p39
aS'f'
p40
aa(lp41
S'10c'
p42
aS'11s'
p43
aS'12s'
p44
aS'f'
p45
aS'f'
p46
aS'10a'
p47
aS'12s'
p48
aS'12s'
p49
aa(lp50
S'f'
p51
aS'11s'
p52
aS'9a'
p53
aS'12s'
p54
aS'11s'
p55
aS'f'
p56
aS'12s'
p57
aS'12s'
p58
aa(lp59
S'f'
p60
aS'f'
p61
aS'11s'
p62
aS'11s'
p63
aS'12s'
p64
aS'12s'
p65
aS'f'
p66
aS'f'
p67
aasS'assigned'
p68
(dp69
I0
I00
sI1
I00
sI2
I00
sI3
I00
sI4
S'5a'
p70
sI5
S'6a'
p71
sI6
I00
sI7
I00
ssS'free_pos'
p72
S'chemistry lab'
p73
sS'title_name'
p74
S'Sonia Singh'
p75
sS'proxies'
p76
(lp77
(lp78
g4
a(i__main__
Teacher
p79
(dp80
g6
S'He is absent today.'
p81
sg8
S'Gandhi'
p82
sg10
S"Note: 'f' stands for free session and 'r' stands for recess.\n\nSession  : 1\t2\t3\t4\tr\t5\t6\t7\t8\t\n________________________________________________________________________________\n\nMonday   : 5A\tf\t6A\t7B\tr\t8A\t7A\t6A\tf\t\nTuesday  : 5A\t6A\tf\tf\tr\t5A\t6A\tf\t7B\t\nWednesday: 5A\t7A\t6A\tf\tr\t7B\t5B\tf\t6A\t\nThursday : f\t7B\tf\t3C\tr\t6A\t5A\tf\t7A\t\nFriday   : 5A\tf\t7C\t6A\tr\tf\t5A\tf\tf\t\nSaturday : f\t7B\t5A\tf\tr\t7A\t8A\tf\t6A"
p83
sg12
(lp84
(lp85
S'5a'
p86
aS'f'
p87
aS'6a'
p88
aS'7b'
p89
aS'8a'
p90
aS'7a'
p91
aS'6a'
p92
aS'f'
p93
aa(lp94
S'5a'
p95
aS'6a'
p96
aS'f'
p97
aS'f'
p98
ag70
ag71
aS'f'
p99
aS'7b'
p100
aa(lp101
S'5a'
p102
aS'7a'
p103
aS'6a'
p104
aS'f'
p105
aS'7b'
p106
aS'5b'
p107
aS'f'
p108
aS'6a'
p109
aa(lp110
S'f'
p111
aS'7b'
p112
aS'f'
p113
aS'3c'
p114
aS'6a'
p115
aS'5a'
p116
aS'f'
p117
aS'7a'
p118
aa(lp119
S'5a'
p120
aS'f'
p121
aS'7c'
p122
aS'6a'
p123
aS'f'
p124
aS'5a'
p125
aS'f'
p126
aS'f'
p127
aa(lp128
S'f'
p129
aS'7b'
p130
aS'5a'
p131
aS'f'
p132
aS'7a'
p133
aS'8a'
p134
aS'f'
p135
aS'6a'
p136
aasg68
(dp137
I0
I00
sI1
I00
sI2
I00
sI3
I00
sI4
g4
sI5
g4
sI6
I00
sI7
(i__main__
Teacher
p138
(dp139
g6
S'He is most probably in class 9A.'
p140
sg8
S'Modi'
p141
sg10
S"Note: 'f' stands for free session and 'r' stands for recess.\n\nSession  : 1\t2\t3\t4\tr\t5\t6\t7\t8\t\n________________________________________________________________________________\n\nMonday   : 8B\tf\t7C\t11C\tr\t11C\t7C\t7A\tf\t\nTuesday  : 8B\t11C\t9A\tf\tr\t8B\t7C\t7A\tf\t\nWednesday: 8B\t7C\tf\t10C\tr\tf\t11C\t7A\tf\t\nThursday : 8B\t8B\t11C\tf\tr\t7C\t7A\tf\t11C\t\nFriday   : 8B\tf\t7A\t7C\tr\tf\t8B\t11C\t11C\t\nSaturday : 7A\t11C\tf\t7C\tr\t7C\t10C\tf\t9A"
p142
sg12
(lp143
(lp144
S'8b'
p145
aS'f'
p146
aS'7c'
p147
aS'11c'
p148
aS'11c'
p149
aS'7c'
p150
aS'7a'
p151
aS'f'
p152
aa(lp153
S'8b'
p154
aS'11c'
p155
aS'9a'
p156
aS'f'
p157
aS'8b'
p158
aS'7c'
p159
aS'7a'
p160
aS'f'
p161
aa(lp162
S'8b'
p163
aS'7c'
p164
aS'f'
p165
aS'10c'
p166
aS'f'
p167
aS'11c'
p168
aS'7a'
p169
aS'f'
p170
aa(lp171
S'8b'
p172
aS'8b'
p173
aS'11c'
p174
aS'f'
p175
aS'7c'
p176
aS'7a'
p177
aS'f'
p178
aS'11c'
p179
aa(lp180
S'8b'
p181
aS'f'
p182
aS'7a'
p183
aS'7c'
p184
aS'f'
p185
aS'8b'
p186
aS'11c'
p187
aS'11c'
p188
aa(lp189
S'7a'
p190
aS'11c'
p191
aS'f'
p192
aS'7c'
p193
aS'7c'
p194
aS'10c'
p195
aS'f'
p196
aS'9a'
p197
aasg68
(dp198
I0
I00
sI1
I00
sI2
I00
sI3
S'12s'
p199
sI4
I00
sI5
I00
sI6
I00
sI7
g100
ssg72
S'library'
p200
sg74
S'Mulayam'
p201
sg76
(lp202
(lp203
g138
ag79
ag100
aI7
aa(lp204
g138
a(i__main__
Teacher
p205
(dp206
g6
S'She is absent today.'
p207
sg8
S'Yadav'
p208
sg10
S"Note: 'f' stands for free session and 'r' stands for recess.\n\nSession  : 1\t2\t3\t4\tr\t5\t6\t7\t8\t\n________________________________________________________________________________\n\nMonday   : 10B\t10B\t12S\t11S\tr\t11S\tf\t10A\t10A\t\nTuesday  : f\t11S\tf\t12S\tr\t12S\tf\t9B\t9B\t\nWednesday: 9C\t9C\t12S\tf\tr\t9B\t11S\tf\tf\t\nThursday : 12S\t12S\t11S\tf\tr\t9A\t9A\t10B\t11S\t\nFriday   : f\t10C\t10C\t9A\tr\tf\t12S\t11S\t11S\t\nSaturday : f\t11S\t12S\t12S\tr\t9C\tf\t10C\t10A"
p209
sg12
(lp210
(lp211
S'10b'
p212
aS'10b'
p213
aS'12s'
p214
aS'11s'
p215
aS'11s'
p216
aS'f'
p217
aS'10a'
p218
aS'10a'
p219
aa(lp220
S'f'
p221
aS'11s'
p222
aS'f'
p223
ag199
aS'12s'
p224
aS'f'
p225
aS'9b'
p226
aS'9b'
p227
aa(lp228
S'9c'
p229
aS'9c'
p230
aS'12s'
p231
aS'f'
p232
aS'9b'
p233
aS'11s'
p234
aS'f'
p235
aS'f'
p236
aa(lp237
S'12s'
p238
aS'12s'
p239
aS'11s'
p240
aS'f'
p241
aS'9a'
p242
aS'9a'
p243
aS'10b'
p244
aS'11s'
p245
aa(lp246
S'f'
p247
aS'10c'
p248
aS'10c'
p249
aS'9a'
p250
aS'f'
p251
aS'12s'
p252
aS'11s'
p253
aS'11s'
p254
aa(lp255
S'f'
p256
aS'11s'
p257
aS'12s'
p258
aS'12s'
p259
aS'9c'
p260
aS'f'
p261
aS'10c'
p262
aS'10a'
p263
aasg68
(dp264
I0
I00
sI1
I00
sI2
I00
sI3
g138
sI4
I00
sI5
I00
sI6
I00
sI7
I00
ssg72
S'biology lab'
p265
sg74
S'Sonia Yadav'
p266
sg76
(lp267
g204
asS'subjects'
p268
(lp269
S'biology'
p270
asS'tod_sched'
p271
S'Session : 1\t\t2\t3\x0e\t\t4\tRECESS\t5\t6\t\t7\t8\t\nPosition: biology lab \t11S \tbiology lab \t12S \tGROUND\t12S \tbiology lab \t9B \t9B \t'
p272
sS'first_name'
p273
S'Sonia'
p274
sS'name'
p275
g266
sS'gender'
p276
S'female'
p277
sS'is_present'
p278
I00
sS'today_sched'
p279
g220
sS'classes'
p280
(lp281
S'10'
p282
aS'11'
p283
aS'12'
p284
aS'9'
p285
asS'recess_pos'
p286
S'ground'
p287
sS'history'
p288
(dp289
sbag199
aI3
aasg268
(lp290
S'economics'
p291
aS'hindi'
p292
aS'social science'
p293
asg271
S'Session : 1\t2\t3\x0e\t4\t\tRECESS\t\t5\t6\t7\t8\t\t\nPosition: 8B \t11C \t9A \t12S(proxy) \tSTAFF ROOM\t8B \t7C \t7A \t7B(proxy) \t'
p294
sg273
g201
sg275
S'Mulayam Modi'
p295
sg276
S'male'
p296
sg278
I01
sg279
(lp297
g154
ag155
ag156
ag199
ag158
ag159
ag160
ag100
asg280
(lp298
S'10'
p299
aS'11'
p300
aS'7'
p301
aS'8'
p302
aS'9'
p303
asg286
S'staff room'
p304
sS'pres_pos'
p305
g156
sg288
(dp306
sbssg72
S'library'
p307
sg74
S'Narendra'
p308
sg76
(lp309
g78
a(lp310
g4
ag79
ag71
aI5
aag203
asg268
(lp311
S'Gujarati'
p312
aS'Spanish'
p313
asg271
S'Session : 1\t2\t3\x0e\t\t4\t\tRECESS\t5\t6\t7\t\t8\t\nPosition: 5A \t6A \tlibrary \tlibrary \tGROUND\t5A \t6A \tlibrary \t7B \t'
p314
sg273
g308
sg275
S'Narendra Gandhi'
p315
sg276
S'male'
p316
sg278
I00
sg279
g94
sg280
(lp317
S'5'
p318
aS'6'
p319
aS'7'
p320
aS'8'
p321
asg286
S'ground'
p322
sg288
(dp323
sbag70
aI4
aag310
asg268
(lp324
S'chemistry'
p325
asg271
S'Session : 1\t2\t3\x0e\t4\tRECESS\t\t5\t\t6\t\t7\t8\t\nPosition: 10A \t12S \t12S \t11S \tCHEMISTRY LAB\t5A(proxy) \t6A(proxy) \t10B \t11S \t'
p326
sg273
S'Sonia'
p327
sg275
g75
sg276
S'female'
p328
sg278
I01
sg279
(lp329
g24
ag25
ag26
ag27
ag70
ag71
ag30
ag31
asg280
(lp330
S'10'
p331
aS'11'
p332
aS'12'
p333
aS'9'
p334
asg286
S'chemistry lab'
p335
sg305
g26
sg288
(dp336
sbag138
asS'pres_teachers'
p337
(lp338
g4
ag138
asS'abs_teachers'
p339
(lp340
g79
ag205
a(i__main__
Teacher
p341
(dp342
g6
S'He is absent today.'
p343
sg8
S'Yadav'
p344
sg10
S"Note: 'f' stands for free session and 'r' stands for recess.\n\nSession  : 1\t2\t3\t4\tr\t5\t6\t7\t8\t\n________________________________________________________________________________\n\nMonday   : f\t6B\t4A\t5C\tr\t1A\t2A\t3A\tf\t\nTuesday  : f\tf\t2C\t1A\tr\t3A\t5A\t1B\t4C\t\nWednesday: f\t1C\t4B\t4A\tr\t4C\t7B\tf\t3C\t\nThursday : f\t3B\t2A\t2B\tr\tf\t6A\t5C\t7C\t\nFriday   : f\t5A\t7B\t2C\tr\t3C\t6C\t5B\tf\t\nSaturday : f\t1C\t4B\t2B\tr\tf\t5B\t3B\t7A"
p345
sg12
(lp346
(lp347
S'f'
p348
aS'6b'
p349
aS'4a'
p350
aS'5c'
p351
aS'1a'
p352
aS'2a'
p353
aS'3a'
p354
aS'f'
p355
aa(lp356
S'f'
p357
aS'f'
p358
aS'2c'
p359
aS'1a'
p360
aS'3a'
p361
aS'5a'
p362
aS'1b'
p363
aS'4c'
p364
aa(lp365
S'f'
p366
aS'1c'
p367
aS'4b'
p368
aS'4a'
p369
aS'4c'
p370
aS'7b'
p371
aS'f'
p372
aS'3c'
p373
aa(lp374
S'f'
p375
aS'3b'
p376
aS'2a'
p377
aS'2b'
p378
aS'f'
p379
aS'6a'
p380
aS'5c'
p381
aS'7c'
p382
aa(lp383
S'f'
p384
aS'5a'
p385
aS'7b'
p386
aS'2c'
p387
aS'3c'
p388
aS'6c'
p389
aS'5b'
p390
aS'f'
p391
aa(lp392
S'f'
p393
aS'1c'
p394
aS'4b'
p395
aS'2b'
p396
aS'f'
p397
aS'5b'
p398
aS'3b'
p399
aS'7a'
p400
aasg68
(dp401
I0
I00
sI1
I00
sI2
I00
sI3
I00
sI4
I00
sI5
I00
sI6
I00
sI7
I00
ssg72
S'music room'
p402
sg74
S'Rahul'
p403
sg76
(lp404
sg268
(lp405
S'Civics'
p406
aS'Music'
p407
asg271
S'Session : 1\t\t2\t\t3\x0e\t4\tRECESS\t\t5\t6\t7\t8\t\nPosition: music room \tmusic room \t2C \t1A \tSTAFF ROOM\t3A \t5A \t1B \t4C \t'
p408
sg273
g403
sg275
S'Rahul Yadav'
p409
sg276
S'male'
p410
sg278
I00
sg279
g356
sg280
(lp411
S'1'
p412
aS'2'
p413
aS'3'
p414
aS'4'
p415
aS'5'
p416
aS'6'
p417
asg286
S'staff room'
p418
sg288
(dp419
sbasS'custom_proxies'
p420
(lp421
sS'removed_proxies'
p422
(lp423
sS'gen_proxies'
p424
(lp425
g78
ag310
ag203
ag204
asS'clamoni'
p426
(dp427
g96
(lp428
I1
asg226
(lp429
I6
aI7
asg360
(lp430
I3
asg199
(lp431
I4
asg222
(lp432
I1
asg359
(lp433
I2
asg363
(lp434
I6
asg361
(lp435
I4
asg95
(lp436
I0
aI5
asg364
(lp437
I7
assS'teachers'
p438
(lp439
g4
ag205
ag341
ag79
ag138
asS'proxies'
p440
(lp441
g204
ag78
ag310
ag203
asb.