(i__main__
Stats
p0
(dp1
S'proxy_teachers'
p2
(lp3
(i__main__
Teacher
p4
(dp5
S'status'
p6
S'He is most probably in class 6A (in place of Narendra).'
p7
sS'assigned'
p8
(dp9
I0
S'5a'
p10
sI1
S'6a'
p11
sI2
I00
sI3
I00
sI4
I00
sI5
I00
sI6
I00
sI7
I00
ssS'first_name'
p12
S'Rahul'
p13
sS'last_name'
p14
S'Yadav'
p15
sS'sched'
p16
S"Note: 'f' stands for free session and 'r' stands for recess.\n\nSession  : 1\t2\t3\t4\tr\t5\t6\t7\t8\t\n________________________________________________________________________________\n\nMonday   : f\t6B\t4A\t5C\tr\t1A\t2A\t3A\tf\t\nTuesday  : f\tf\t2C\t1A\tr\t3A\t5A\t1B\t4C   <- today\nWednesday: f\t1C\t4B\t4A\tr\t4C\t7B\tf\t3C\t\nThursday : f\t3B\t2A\t2B\tr\tf\t6A\t5C\t7C\t\nFriday   : f\t5A\t7B\t2C\tr\t3C\t6C\t5B\tf\t\nSaturday : f\t1C\t4B\t2B\tr\tf\t5B\t3B\t7A"
p17
sS'name'
p18
S'Rahul Yadav'
p19
sS'schedule'
p20
(lp21
(lp22
S'f'
p23
aS'6b'
p24
aS'4a'
p25
aS'5c'
p26
aS'1a'
p27
aS'2a'
p28
aS'3a'
p29
aS'f'
p30
aa(lp31
g10
ag11
aS'2c'
p32
aS'1a'
p33
aS'3a'
p34
aS'5a'
p35
aS'1b'
p36
aS'4c'
p37
aa(lp38
S'f'
p39
aS'1c'
p40
aS'4b'
p41
aS'4a'
p42
aS'4c'
p43
aS'7b'
p44
aS'f'
p45
aS'3c'
p46
aa(lp47
S'f'
p48
aS'3b'
p49
aS'2a'
p50
aS'2b'
p51
aS'f'
p52
aS'6a'
p53
aS'5c'
p54
aS'7c'
p55
aa(lp56
S'f'
p57
aS'5a'
p58
aS'7b'
p59
aS'2c'
p60
aS'3c'
p61
aS'6c'
p62
aS'5b'
p63
aS'f'
p64
aa(lp65
S'f'
p66
aS'1c'
p67
aS'4b'
p68
aS'2b'
p69
aS'f'
p70
aS'5b'
p71
aS'3b'
p72
aS'7a'
p73
aasS'gender'
p74
S'male'
p75
sS'pres_pos'
p76
g11
sS'is_present'
p77
I01
sS'today_sched'
p78
g31
sS'tod_sched'
p79
S'Session:1\t\t2\x0e\t\t3\t4\tRECESS\t\t5\t6\t7\t8\t\nStatus :5A(proxy) \t6A(proxy) \t2C \t1A \tSTAFF ROOM\t3A \t5A \t1B \t4C \t'
p80
sS'classes'
p81
(lp82
S'1'
p83
aS'2'
p84
aS'3'
p85
aS'4'
p86
aS'5'
p87
aS'6'
p88
asS'recess_pos'
p89
S'staff room'
p90
sS'saved_assignments'
p91
g9
sS'free_pos'
p92
S'music room'
p93
sS'title_name'
p94
g13
sS'proxies'
p95
(lp96
(lp97
g4
a(i__main__
Teacher
p98
(dp99
g6
S'He is absent today.'
p100
sg8
(dp101
I0
g4
sI1
g4
sI2
I00
sI3
I00
sI4
(i__main__
Teacher
p102
(dp103
g6
S'She is most probably in class 12S.'
p104
sg8
(dp105
I0
I00
sI1
I00
sI2
I00
sI3
I00
sI4
S'5a'
p106
sI5
S'6a'
p107
sI6
I00
sI7
I00
ssg12
S'Sonia'
p108
sg14
S'Singh'
p109
sg16
S"Note: 'f' stands for free session and 'r' stands for recess.\n\nSession  : 1\t2\t3\t4\tr\t5\t6\t7\t8\t\n________________________________________________________________________________\n\nMonday   : 10A\t10A\t11S\tf\tr\t12S\t9C\t10C\tf\t\nTuesday  : 10A\t12S\t12S\t11S\tr\tf\tf\t10B\t11S   <- today\nWednesday: 11S\t11S\t10A\t10B\tr\tf\t9B\tf\tf\t\nThursday : 10C\t11S\t12S\tf\tr\tf\t10A\t12S\t12S\t\nFriday   : f\t11S\t9A\t12S\tr\t11S\tf\t12S\t12S\t\nSaturday : f\tf\t11S\t11S\tr\t12S\t12S\tf\tf"
p110
sg18
S'Sonia Singh'
p111
sg20
(lp112
(lp113
S'10a'
p114
aS'10a'
p115
aS'11s'
p116
aS'f'
p117
aS'12s'
p118
aS'9c'
p119
aS'10c'
p120
aS'f'
p121
aa(lp122
S'10a'
p123
aS'12s'
p124
aS'12s'
p125
aS'11s'
p126
ag106
ag107
aS'10b'
p127
aS'11s'
p128
aa(lp129
S'11s'
p130
aS'11s'
p131
aS'10a'
p132
aS'10b'
p133
aS'f'
p134
aS'9b'
p135
aS'f'
p136
aS'f'
p137
aa(lp138
S'10c'
p139
aS'11s'
p140
aS'12s'
p141
aS'f'
p142
aS'f'
p143
aS'10a'
p144
aS'12s'
p145
aS'12s'
p146
aa(lp147
S'f'
p148
aS'11s'
p149
aS'9a'
p150
aS'12s'
p151
aS'11s'
p152
aS'f'
p153
aS'12s'
p154
aS'12s'
p155
aa(lp156
S'f'
p157
aS'f'
p158
aS'11s'
p159
aS'11s'
p160
aS'12s'
p161
aS'12s'
p162
aS'f'
p163
aS'f'
p164
aasg74
S'female'
p165
sg76
g124
sg77
I01
sg78
g122
sg79
S'Session:1\t2\x0e\t3\t4\tRECESS\t\t5\t\t6\t\t7\t8\t\nStatus :10A \t12S \t12S \t11S \tCHEMISTRY LAB\t5A(proxy) \t6A(proxy) \t10B \t11S \t'
p166
sg81
(lp167
S'10'
p168
aS'11'
p169
aS'12'
p170
aS'9'
p171
asg89
S'chemistry lab'
p172
sg91
g105
sg92
S'chemistry lab'
p173
sg94
g111
sg95
(lp174
(lp175
g102
ag98
ag106
aI4
aa(lp176
g102
ag98
ag107
aI5
aasS'subjects'
p177
(lp178
S'chemistry'
p179
asS'history'
p180
(dp181
sbsI5
g102
sI6
I00
sI7
(i__main__
Teacher
p182
(dp183
g6
S'He is most probably in class 10A.'
p184
sg8
(dp185
I0
I00
sI1
I00
sI2
I00
sI3
S'12s'
p186
sI4
I00
sI5
I00
sI6
I00
sI7
S'7b'
p187
ssg12
S'Albert'
p188
sg14
S'Newton'
p189
sg16
S"Note: 'f' stands for free session and 'r' stands for recess.\n\nSession  : 1\t2\t3\t4\tr\t5\t6\t7\t8\t\n________________________________________________________________________________\n\nMonday   : 9A\t9B\t10A\t10B\tr\tf\t11S\t12S\tf\t\nTuesday  : 10B\t10A\tf\tf\tr\t9A\t12S\t12S\tf   <- today\nWednesday: 10B\t12S\t10B\tf\tr\tf\t9A\tf\t10A\t\nThursday : 11S\t10A\t10B\t11S\tr\t12S\t9B\tf\tf\t\nFriday   : f\t9A\t9B\t10A\tr\t10B\t11S\t10A\tf\t\nSaturday : f\t12S\t10A\t10B\tr\t9A\t9B\t12S\tf"
p190
sg18
S'Albert Newton'
p191
sg20
(lp192
(lp193
S'9a'
p194
aS'9b'
p195
aS'10a'
p196
aS'10b'
p197
aS'f'
p198
aS'11s'
p199
aS'12s'
p200
aS'f'
p201
aa(lp202
S'10b'
p203
aS'10a'
p204
aS'f'
p205
ag186
aS'9a'
p206
aS'12s'
p207
aS'12s'
p208
ag187
aa(lp209
S'10b'
p210
aS'12s'
p211
aS'10b'
p212
aS'f'
p213
aS'f'
p214
aS'9a'
p215
aS'f'
p216
aS'10a'
p217
aa(lp218
S'11s'
p219
aS'10a'
p220
aS'10b'
p221
aS'11s'
p222
aS'12s'
p223
aS'9b'
p224
aS'f'
p225
aS'f'
p226
aa(lp227
S'f'
p228
aS'9a'
p229
aS'9b'
p230
aS'10a'
p231
aS'10b'
p232
aS'11s'
p233
aS'10a'
p234
aS'f'
p235
aa(lp236
S'f'
p237
aS'12s'
p238
aS'10a'
p239
aS'10b'
p240
aS'9a'
p241
aS'9b'
p242
aS'12s'
p243
aS'f'
p244
aasg74
S'male'
p245
sg76
g204
sg77
I01
sg78
g202
sg79
S"Note:'*' denotes that Albert is free in, or somewhere around physics lab.\n\nSession:1\t2\x0e\t3\t\t4\t\tRECESS\t5\t6\t7\t8\t\t\nStatus :10B \t10A \tphysics lab* \t12S(proxy) \tGROUND\t9A \t12S \t12S \t7B(proxy) \t"
p246
sg81
(lp247
S'10'
p248
aS'11'
p249
aS'12'
p250
aS'9'
p251
asg89
S'ground'
p252
sg91
g185
sg92
S'physics lab'
p253
sg94
g188
sg95
(lp254
(lp255
g182
a(i__main__
Teacher
p256
(dp257
g6
S'She is absent today.'
p258
sg8
(dp259
I0
I00
sI1
I00
sI2
I00
sI3
g182
sI4
I00
sI5
I00
sI6
I00
sI7
(i__main__
Teacher
p260
(dp261
g6
S'He is most probably in class 11C.'
p262
sg8
(dp263
I0
I00
sI1
I00
sI2
I00
sI3
I00
sI4
I00
sI5
I00
sI6
I00
sI7
S'9b'
p264
ssg12
S'Mulayam'
p265
sg14
S'Modi'
p266
sg16
S"Note: 'f' stands for free session and 'r' stands for recess.\n\nSession  : 1\t2\t3\t4\tr\t5\t6\t7\t8\t\n________________________________________________________________________________\n\nMonday   : 8B\tf\t7C\t11C\tr\t11C\t7C\t7A\tf\t\nTuesday  : 8B\t11C\t9A\tf\tr\t8B\t7C\t7A\tf   <- today\nWednesday: 8B\t7C\tf\t10C\tr\tf\t11C\t7A\tf\t\nThursday : 8B\t8B\t11C\tf\tr\t7C\t7A\tf\t11C\t\nFriday   : 8B\tf\t7A\t7C\tr\tf\t8B\t11C\t11C\t\nSaturday : 7A\t11C\tf\t7C\tr\t7C\t10C\tf\t9A"
p267
sg18
S'Mulayam Modi'
p268
sg20
(lp269
(lp270
S'8b'
p271
aS'f'
p272
aS'7c'
p273
aS'11c'
p274
aS'11c'
p275
aS'7c'
p276
aS'7a'
p277
aS'f'
p278
aa(lp279
S'8b'
p280
aS'11c'
p281
aS'9a'
p282
aS'f'
p283
aS'8b'
p284
aS'7c'
p285
aS'7a'
p286
ag264
aa(lp287
S'8b'
p288
aS'7c'
p289
aS'f'
p290
aS'10c'
p291
aS'f'
p292
aS'11c'
p293
aS'7a'
p294
aS'f'
p295
aa(lp296
S'8b'
p297
aS'8b'
p298
aS'11c'
p299
aS'f'
p300
aS'7c'
p301
aS'7a'
p302
aS'f'
p303
aS'11c'
p304
aa(lp305
S'8b'
p306
aS'f'
p307
aS'7a'
p308
aS'7c'
p309
aS'f'
p310
aS'8b'
p311
aS'11c'
p312
aS'11c'
p313
aa(lp314
S'7a'
p315
aS'11c'
p316
aS'f'
p317
aS'7c'
p318
aS'7c'
p319
aS'10c'
p320
aS'f'
p321
aS'9a'
p322
aasg74
S'male'
p323
sg76
g281
sg77
I01
sg78
g279
sg79
S"Note:'*' denotes that Mulayam is free in, or somewhere around library.\n\nSession:1\t2\x0e\t3\t4\t\tRECESS\t\t5\t6\t7\t8\t\t\nStatus :8B \t11C \t9A \tlibrary* \tSTAFF ROOM\t8B \t7C \t7A \t9B(proxy) \t"
p324
sg81
(lp325
S'10'
p326
aS'11'
p327
aS'7'
p328
aS'8'
p329
aS'9'
p330
asg89
S'staff room'
p331
sg91
g263
sg92
S'library'
p332
sg94
g265
sg95
(lp333
(lp334
g260
ag256
ag264
aI7
aasg177
(lp335
S'economics'
p336
aS'hindi'
p337
aS'social science'
p338
asg180
(dp339
sbssg12
S'Sonia'
p340
sg14
S'Yadav'
p341
sg16
S"Note: 'f' stands for free session and 'r' stands for recess.\n\nSession  : 1\t2\t3\t4\tr\t5\t6\t7\t8\t\n________________________________________________________________________________\n\nMonday   : 10B\t10B\t12S\t11S\tr\t11S\tf\t10A\t10A\t\nTuesday  : f\t11S\tf\t12S\tr\t12S\tf\t9B\t9B   <- today\nWednesday: 9C\t9C\t12S\tf\tr\t9B\t11S\tf\tf\t\nThursday : 12S\t12S\t11S\tf\tr\t9A\t9A\t10B\t11S\t\nFriday   : f\t10C\t10C\t9A\tr\tf\t12S\t11S\t11S\t\nSaturday : f\t11S\t12S\t12S\tr\t9C\tf\t10C\t10A"
p342
sg18
S'Sonia Yadav'
p343
sg20
(lp344
(lp345
S'10b'
p346
aS'10b'
p347
aS'12s'
p348
aS'11s'
p349
aS'11s'
p350
aS'f'
p351
aS'10a'
p352
aS'10a'
p353
aa(lp354
S'f'
p355
aS'11s'
p356
aS'f'
p357
ag186
aS'12s'
p358
aS'f'
p359
aS'9b'
p360
ag264
aa(lp361
S'9c'
p362
aS'9c'
p363
aS'12s'
p364
aS'f'
p365
aS'9b'
p366
aS'11s'
p367
aS'f'
p368
aS'f'
p369
aa(lp370
S'12s'
p371
aS'12s'
p372
aS'11s'
p373
aS'f'
p374
aS'9a'
p375
aS'9a'
p376
aS'10b'
p377
aS'11s'
p378
aa(lp379
S'f'
p380
aS'10c'
p381
aS'10c'
p382
aS'9a'
p383
aS'f'
p384
aS'12s'
p385
aS'11s'
p386
aS'11s'
p387
aa(lp388
S'f'
p389
aS'11s'
p390
aS'12s'
p391
aS'12s'
p392
aS'9c'
p393
aS'f'
p394
aS'10c'
p395
aS'10a'
p396
aasg74
S'female'
p397
sg77
I00
sg78
g354
sg79
S'(She is absent today.)\n\nSession:1\t\t2\x0e\t3\t\t4\tRECESS\t5\t6\t\t7\t8\t\nStatus :biology lab \t11S \tbiology lab \t12S \tGROUND\t12S \tbiology lab \t9B \t9B \t'
p398
sg81
(lp399
S'10'
p400
aS'11'
p401
aS'12'
p402
aS'9'
p403
asg89
S'ground'
p404
sg91
g259
sg92
S'biology lab'
p405
sg94
g343
sg95
(lp406
g255
ag334
asg177
(lp407
S'biology'
p408
asg180
(dp409
sbag186
aI3
aa(lp410
g182
ag98
ag187
aI7
aasg177
(lp411
S' maths'
p412
aS'physics'
p413
asg180
(dp414
sbssg12
S'Narendra'
p415
sg14
S'Gandhi'
p416
sg16
S"Note: 'f' stands for free session and 'r' stands for recess.\n\nSession  : 1\t2\t3\t4\tr\t5\t6\t7\t8\t\n________________________________________________________________________________\n\nMonday   : 5A\tf\t6A\t7B\tr\t8A\t7A\t6A\tf\t\nTuesday  : 5A\t6A\tf\tf\tr\t5A\t6A\tf\t7B   <- today\nWednesday: 5A\t7A\t6A\tf\tr\t7B\t5B\tf\t6A\t\nThursday : f\t7B\tf\t3C\tr\t6A\t5A\tf\t7A\t\nFriday   : 5A\tf\t7C\t6A\tr\tf\t5A\tf\tf\t\nSaturday : f\t7B\t5A\tf\tr\t7A\t8A\tf\t6A"
p417
sg18
S'Narendra Gandhi'
p418
sg20
(lp419
(lp420
S'5a'
p421
aS'f'
p422
aS'6a'
p423
aS'7b'
p424
aS'8a'
p425
aS'7a'
p426
aS'6a'
p427
aS'f'
p428
aa(lp429
g10
ag11
aS'f'
p430
aS'f'
p431
ag106
ag107
aS'f'
p432
ag187
aa(lp433
S'5a'
p434
aS'7a'
p435
aS'6a'
p436
aS'f'
p437
aS'7b'
p438
aS'5b'
p439
aS'f'
p440
aS'6a'
p441
aa(lp442
S'f'
p443
aS'7b'
p444
aS'f'
p445
aS'3c'
p446
aS'6a'
p447
aS'5a'
p448
aS'f'
p449
aS'7a'
p450
aa(lp451
S'5a'
p452
aS'f'
p453
aS'7c'
p454
aS'6a'
p455
aS'f'
p456
aS'5a'
p457
aS'f'
p458
aS'f'
p459
aa(lp460
S'f'
p461
aS'7b'
p462
aS'5a'
p463
aS'f'
p464
aS'7a'
p465
aS'8a'
p466
aS'f'
p467
aS'6a'
p468
aasg74
S'male'
p469
sg77
I00
sg78
g429
sg79
S'(He is absent today.)\n\nSession:1\t2\x0e\t3\t\t4\t\tRECESS\t5\t6\t7\t\t8\t\nStatus :5A \t6A \tlibrary \tlibrary \tGROUND\t5A \t6A \tlibrary \t7B \t'
p470
sg81
(lp471
S'5'
p472
aS'6'
p473
aS'7'
p474
aS'8'
p475
asg89
S'ground'
p476
sg91
g101
sg92
S'library'
p477
sg94
g415
sg95
(lp478
g97
a(lp479
g4
ag98
ag11
aI1
aag175
ag176
ag410
asg177
(lp480
S'Gujarati'
p481
aS'Spanish'
p482
asg180
(dp483
sbag10
aI0
aag479
asg177
(lp484
S'Civics'
p485
aS'Music'
p486
asg180
(dp487
sbag182
ag102
ag260
asS'pres_teachers'
p488
(lp489
g182
ag4
ag102
ag260
asS'abs_teachers'
p490
(lp491
g98
ag256
asS'custom_proxies'
p492
(lp493
sS'removed_proxies'
p494
(lp495
sS's_proxies'
p496
(lp497
g97
ag479
a(lp498
g4
ag256
ag356
aI1
aag255
a(lp499
g260
ag256
ag186
aI3
aag175
a(lp500
g102
ag256
ag358
aI4
aag176
ag410
a(lp501
g182
ag256
ag264
aI7
aa(lp502
g260
ag98
ag187
aI7
aag334
asS'gen_proxies'
p503
(lp504
g97
ag479
ag255
ag175
ag176
ag410
ag334
asS'clamoni'
p505
(dp506
g360
(lp507
I6
asg186
(lp508
I4
asg356
(lp509
I1
assS'teachers'
p510
(lp511
g102
ag98
ag4
ag260
ag182
ag256
asS'comp_proxies'
p512
(lp513
g97
ag479
ag255
ag175
ag176
ag410
ag334
asg95
(lp514
g97
ag479
ag255
ag175
ag176
ag410
ag334
asb.