(i__main__
Stats
p0
(dp1
S'proxy_teachers'
p2
(lp3
(i__main__
Teacher
p4
(dp5
S'status'
p6
S'He is most probably in class 5A.'
p7
sS'assigned'
p8
(dp9
I0
I00
sI1
S'6b'
p10
sI2
I00
sI3
I00
sI4
I00
sI5
I00
sI6
I00
sI7
I00
ssS'first_name'
p11
S'Narendra'
p12
sS'last_name'
p13
S'Gandhi'
p14
sS'sched'
p15
S"Note: 'f' stands for free session and 'r' stands for recess.\n\nSession  : 1\t2\t3\t4\tr\t5\t6\t7\t8\t\n________________________________________________________________________________\n\nMonday   : 5A\tf\t6A\t7B\tr\t8A\t7A\t6A\tf   <- today\nTuesday  : 5A\t6A\tf\tf\tr\t5A\t6A\tf\t7B\t\nWednesday: 5A\t7A\t6A\tf\tr\t7B\t5B\tf\t6A\t\nThursday : f\t7B\tf\t3C\tr\t6A\t5A\tf\t7A\t\nFriday   : 5A\tf\t7C\t6A\tr\tf\t5A\tf\tf\t\nSaturday : f\t7B\t5A\tf\tr\t7A\t8A\tf\t6A"
p16
sS'name'
p17
S'Narendra Gandhi'
p18
sS'schedule'
p19
(lp20
(lp21
S'5a'
p22
ag10
aS'6a'
p23
aS'7b'
p24
aS'8a'
p25
aS'7a'
p26
aS'6a'
p27
aS'f'
p28
aa(lp29
S'5a'
p30
aS'6a'
p31
aS'f'
p32
aS'f'
p33
aS'5a'
p34
aS'6a'
p35
aS'f'
p36
aS'7b'
p37
aa(lp38
S'5a'
p39
aS'7a'
p40
aS'6a'
p41
aS'f'
p42
aS'7b'
p43
aS'5b'
p44
aS'f'
p45
aS'6a'
p46
aa(lp47
S'f'
p48
aS'7b'
p49
aS'f'
p50
aS'3c'
p51
aS'6a'
p52
aS'5a'
p53
aS'f'
p54
aS'7a'
p55
aa(lp56
S'5a'
p57
aS'f'
p58
aS'7c'
p59
aS'6a'
p60
aS'f'
p61
aS'5a'
p62
aS'f'
p63
aS'f'
p64
aa(lp65
S'f'
p66
aS'7b'
p67
aS'5a'
p68
aS'f'
p69
aS'7a'
p70
aS'8a'
p71
aS'f'
p72
aS'6a'
p73
aasS'gender'
p74
S'male'
p75
sS'pres_pos'
p76
g22
sS'is_present'
p77
I01
sS'today_sched'
p78
g21
sS'tod_sched'
p79
S"Note:'*' denotes that Narendra is free in, or somewhere around library.\n\nSession:1\x0e\t2\t\t3\t4\tRECESS\t5\t6\t7\t8\t\t\nStatus :5A \t6B(proxy) \t6A \t7B \tGROUND\t8A \t7A \t6A \tlibrary* \t"
p80
sS'classes'
p81
(lp82
S'5'
p83
aS'6'
p84
aS'7'
p85
aS'8'
p86
asS'recess_pos'
p87
S'ground'
p88
sS'saved_assignments'
p89
g9
sS'free_pos'
p90
S'library'
p91
sS'title_name'
p92
g12
sS'proxies'
p93
(lp94
(lp95
g4
a(i__main__
Teacher
p96
(dp97
g6
S'He is absent today.'
p98
sg8
(dp99
I0
I00
sI1
g4
sI2
I00
sI3
I00
sI4
I00
sI5
I00
sI6
I00
sI7
I00
ssg11
S'Rahul'
p100
sg13
S'Yadav'
p101
sg15
S"Note: 'f' stands for free session and 'r' stands for recess.\n\nSession  : 1\t2\t3\t4\tr\t5\t6\t7\t8\t\n________________________________________________________________________________\n\nMonday   : f\t6B\t4A\t5C\tr\t1A\t2A\t3A\tf   <- today\nTuesday  : f\tf\t2C\t1A\tr\t3A\t5A\t1B\t4C\t\nWednesday: f\t1C\t4B\t4A\tr\t4C\t7B\tf\t3C\t\nThursday : f\t3B\t2A\t2B\tr\tf\t6A\t5C\t7C\t\nFriday   : f\t5A\t7B\t2C\tr\t3C\t6C\t5B\tf\t\nSaturday : f\t1C\t4B\t2B\tr\tf\t5B\t3B\t7A"
p102
sg17
S'Rahul Yadav'
p103
sg19
(lp104
(lp105
S'f'
p106
ag10
aS'4a'
p107
aS'5c'
p108
aS'1a'
p109
aS'2a'
p110
aS'3a'
p111
aS'f'
p112
aa(lp113
S'f'
p114
aS'f'
p115
aS'2c'
p116
aS'1a'
p117
aS'3a'
p118
aS'5a'
p119
aS'1b'
p120
aS'4c'
p121
aa(lp122
S'f'
p123
aS'1c'
p124
aS'4b'
p125
aS'4a'
p126
aS'4c'
p127
aS'7b'
p128
aS'f'
p129
aS'3c'
p130
aa(lp131
S'f'
p132
aS'3b'
p133
aS'2a'
p134
aS'2b'
p135
aS'f'
p136
aS'6a'
p137
aS'5c'
p138
aS'7c'
p139
aa(lp140
S'f'
p141
aS'5a'
p142
aS'7b'
p143
aS'2c'
p144
aS'3c'
p145
aS'6c'
p146
aS'5b'
p147
aS'f'
p148
aa(lp149
S'f'
p150
aS'1c'
p151
aS'4b'
p152
aS'2b'
p153
aS'f'
p154
aS'5b'
p155
aS'3b'
p156
aS'7a'
p157
aasg74
S'male'
p158
sg77
I00
sg78
g105
sg79
S'(He is absent today.)\n\nSession:1\x0e\t\t2\t3\t4\tRECESS\t\t5\t6\t7\t8\t\t\nStatus :music room \t6B \t4A \t5C \tSTAFF ROOM\t1A \t2A \t3A \tmusic room \t'
p159
sg81
(lp160
S'1'
p161
aS'2'
p162
aS'3'
p163
aS'4'
p164
aS'5'
p165
aS'6'
p166
asg87
S'staff room'
p167
sg89
g99
sg90
S'music room'
p168
sg92
g100
sg93
(lp169
g95
asS'subjects'
p170
(lp171
S'Civics'
p172
aS'Music'
p173
asS'history'
p174
(dp175
sbag10
aI1
aasg170
(lp176
S'Gujarati'
p177
aS'Spanish'
p178
asg174
(dp179
sba(i__main__
Teacher
p180
(dp181
g6
S'He is most probably in class 9A.'
p182
sg8
(dp183
I0
I00
sI1
I00
sI2
I00
sI3
I00
sI4
S'11c'
p184
sI5
I00
sI6
I00
sI7
I00
ssg11
S'Albert'
p185
sg13
S'Newton'
p186
sg15
S"Note: 'f' stands for free session and 'r' stands for recess.\n\nSession  : 1\t2\t3\t4\tr\t5\t6\t7\t8\t\n________________________________________________________________________________\n\nMonday   : 9A\t9B\t10A\t10B\tr\tf\t11S\t12S\tf   <- today\nTuesday  : 10B\t10A\tf\tf\tr\t9A\t12S\t12S\tf\t\nWednesday: 10B\t12S\t10B\tf\tr\tf\t9A\tf\t10A\t\nThursday : 11S\t10A\t10B\t11S\tr\t12S\t9B\tf\tf\t\nFriday   : f\t9A\t9B\t10A\tr\t10B\t11S\t10A\tf\t\nSaturday : f\t12S\t10A\t10B\tr\t9A\t9B\t12S\tf"
p187
sg17
S'Albert Newton'
p188
sg19
(lp189
(lp190
S'9a'
p191
aS'9b'
p192
aS'10a'
p193
aS'10b'
p194
ag184
aS'11s'
p195
aS'12s'
p196
aS'f'
p197
aa(lp198
S'10b'
p199
aS'10a'
p200
aS'f'
p201
aS'f'
p202
aS'9a'
p203
aS'12s'
p204
aS'12s'
p205
aS'f'
p206
aa(lp207
S'10b'
p208
aS'12s'
p209
aS'10b'
p210
aS'f'
p211
aS'f'
p212
aS'9a'
p213
aS'f'
p214
aS'10a'
p215
aa(lp216
S'11s'
p217
aS'10a'
p218
aS'10b'
p219
aS'11s'
p220
aS'12s'
p221
aS'9b'
p222
aS'f'
p223
aS'f'
p224
aa(lp225
S'f'
p226
aS'9a'
p227
aS'9b'
p228
aS'10a'
p229
aS'10b'
p230
aS'11s'
p231
aS'10a'
p232
aS'f'
p233
aa(lp234
S'f'
p235
aS'12s'
p236
aS'10a'
p237
aS'10b'
p238
aS'9a'
p239
aS'9b'
p240
aS'12s'
p241
aS'f'
p242
aasg74
S'male'
p243
sg76
g191
sg77
I01
sg78
g190
sg79
S"Note:'*' denotes that Albert is free in, or somewhere around physics lab.\n\nSession:1\x0e\t2\t3\t4\tRECESS\t5\t\t6\t7\t8\t\t\nStatus :9A \t9B \t10A \t10B \tGROUND\t11C(proxy) \t11S \t12S \tphysics lab* \t"
p244
sg81
(lp245
S'10'
p246
aS'11'
p247
aS'12'
p248
aS'9'
p249
asg87
S'ground'
p250
sg89
g183
sg90
S'physics lab'
p251
sg92
g185
sg93
(lp252
(lp253
g180
a(i__main__
Teacher
p254
(dp255
g6
S'He is absent today.'
p256
sg8
(dp257
I0
I00
sI1
I00
sI2
I00
sI3
I00
sI4
g180
sI5
(i__main__
Teacher
p258
(dp259
g6
S'She is most probably in class 10B.'
p260
sg8
(dp261
I0
I00
sI1
I00
sI2
I00
sI3
I00
sI4
I00
sI5
S'7c'
p262
sI6
I00
sI7
I00
ssg11
S'Sonia'
p263
sg13
S'Yadav'
p264
sg15
S"Note: 'f' stands for free session and 'r' stands for recess.\n\nSession  : 1\t2\t3\t4\tr\t5\t6\t7\t8\t\n________________________________________________________________________________\n\nMonday   : 10B\t10B\t12S\t11S\tr\t11S\tf\t10A\t10A   <- today\nTuesday  : f\t11S\tf\t12S\tr\t12S\tf\t9B\t9B\t\nWednesday: 9C\t9C\t12S\tf\tr\t9B\t11S\tf\tf\t\nThursday : 12S\t12S\t11S\tf\tr\t9A\t9A\t10B\t11S\t\nFriday   : f\t10C\t10C\t9A\tr\tf\t12S\t11S\t11S\t\nSaturday : f\t11S\t12S\t12S\tr\t9C\tf\t10C\t10A"
p265
sg17
S'Sonia Yadav'
p266
sg19
(lp267
(lp268
S'10b'
p269
aS'10b'
p270
aS'12s'
p271
aS'11s'
p272
aS'11s'
p273
ag262
aS'10a'
p274
aS'10a'
p275
aa(lp276
S'f'
p277
aS'11s'
p278
aS'f'
p279
aS'12s'
p280
aS'12s'
p281
aS'f'
p282
aS'9b'
p283
aS'9b'
p284
aa(lp285
S'9c'
p286
aS'9c'
p287
aS'12s'
p288
aS'f'
p289
aS'9b'
p290
aS'11s'
p291
aS'f'
p292
aS'f'
p293
aa(lp294
S'12s'
p295
aS'12s'
p296
aS'11s'
p297
aS'f'
p298
aS'9a'
p299
aS'9a'
p300
aS'10b'
p301
aS'11s'
p302
aa(lp303
S'f'
p304
aS'10c'
p305
aS'10c'
p306
aS'9a'
p307
aS'f'
p308
aS'12s'
p309
aS'11s'
p310
aS'11s'
p311
aa(lp312
S'f'
p313
aS'11s'
p314
aS'12s'
p315
aS'12s'
p316
aS'9c'
p317
aS'f'
p318
aS'10c'
p319
aS'10a'
p320
aasg74
S'female'
p321
sg76
g269
sg77
I01
sg78
g268
sg79
S'Session:1\x0e\t2\t3\t4\tRECESS\t5\t6\t\t7\t8\t\nStatus :10B \t10B \t12S \t11S \tGROUND\t11S \t7C(proxy) \t10A \t10A \t'
p322
sg81
(lp323
S'10'
p324
aS'11'
p325
aS'12'
p326
aS'9'
p327
asg87
S'ground'
p328
sg89
g261
sg90
S'biology lab'
p329
sg92
g266
sg93
(lp330
(lp331
g258
ag254
ag262
aI5
aasg170
(lp332
S'biology'
p333
asg174
(dp334
sbsI6
I00
sI7
I00
ssg11
S'Mulayam'
p335
sg13
S'Modi'
p336
sg15
S"Note: 'f' stands for free session and 'r' stands for recess.\n\nSession  : 1\t2\t3\t4\tr\t5\t6\t7\t8\t\n________________________________________________________________________________\n\nMonday   : 8B\tf\t7C\t11C\tr\t11C\t7C\t7A\tf   <- today\nTuesday  : 8B\t11C\t9A\tf\tr\t8B\t7C\t7A\tf\t\nWednesday: 8B\t7C\tf\t10C\tr\tf\t11C\t7A\tf\t\nThursday : 8B\t8B\t11C\tf\tr\t7C\t7A\tf\t11C\t\nFriday   : 8B\tf\t7A\t7C\tr\tf\t8B\t11C\t11C\t\nSaturday : 7A\t11C\tf\t7C\tr\t7C\t10C\tf\t9A"
p337
sg17
S'Mulayam Modi'
p338
sg19
(lp339
(lp340
S'8b'
p341
aS'f'
p342
aS'7c'
p343
aS'11c'
p344
ag184
ag262
aS'7a'
p345
aS'f'
p346
aa(lp347
S'8b'
p348
aS'11c'
p349
aS'9a'
p350
aS'f'
p351
aS'8b'
p352
aS'7c'
p353
aS'7a'
p354
aS'f'
p355
aa(lp356
S'8b'
p357
aS'7c'
p358
aS'f'
p359
aS'10c'
p360
aS'f'
p361
aS'11c'
p362
aS'7a'
p363
aS'f'
p364
aa(lp365
S'8b'
p366
aS'8b'
p367
aS'11c'
p368
aS'f'
p369
aS'7c'
p370
aS'7a'
p371
aS'f'
p372
aS'11c'
p373
aa(lp374
S'8b'
p375
aS'f'
p376
aS'7a'
p377
aS'7c'
p378
aS'f'
p379
aS'8b'
p380
aS'11c'
p381
aS'11c'
p382
aa(lp383
S'7a'
p384
aS'11c'
p385
aS'f'
p386
aS'7c'
p387
aS'7c'
p388
aS'10c'
p389
aS'f'
p390
aS'9a'
p391
aasg74
S'male'
p392
sg77
I00
sg78
g340
sg79
S'(He is absent today.)\n\nSession:1\x0e\t2\t\t3\t4\tRECESS\t\t5\t6\t7\t8\t\t\nStatus :8B \tlibrary \t7C \t11C \tSTAFF ROOM\t11C \t7C \t7A \tlibrary \t'
p393
sg81
(lp394
S'10'
p395
aS'11'
p396
aS'7'
p397
aS'8'
p398
aS'9'
p399
asg87
S'staff room'
p400
sg89
g257
sg90
S'library'
p401
sg92
g335
sg93
(lp402
g253
ag331
asg170
(lp403
S'economics'
p404
aS'hindi'
p405
aS'social science'
p406
asg174
(dp407
sbag184
aI4
aasg170
(lp408
S' maths'
p409
aS'physics'
p410
asg174
(dp411
sbag258
asS'pres_teachers'
p412
(lp413
g4
ag258
ag180
asS'abs_teachers'
p414
(lp415
g254
ag96
a(i__main__
Teacher
p416
(dp417
g6
S'She is absent today.'
p418
sg8
(dp419
I0
I00
sI1
I00
sI2
I00
sI3
I00
sI4
I00
sI5
I00
sI6
I00
sI7
I00
ssg11
S'Sonia'
p420
sg13
S'Singh'
p421
sg15
S"Note: 'f' stands for free session and 'r' stands for recess.\n\nSession  : 1\t2\t3\t4\tr\t5\t6\t7\t8\t\n________________________________________________________________________________\n\nMonday   : 10A\t10A\t11S\tf\tr\t12S\t9C\t10C\tf   <- today\nTuesday  : 10A\t12S\t12S\t11S\tr\tf\tf\t10B\t11S\t\nWednesday: 11S\t11S\t10A\t10B\tr\tf\t9B\tf\tf\t\nThursday : 10C\t11S\t12S\tf\tr\tf\t10A\t12S\t12S\t\nFriday   : f\t11S\t9A\t12S\tr\t11S\tf\t12S\t12S\t\nSaturday : f\tf\t11S\t11S\tr\t12S\t12S\tf\tf"
p422
sg17
S'Sonia Singh'
p423
sg19
(lp424
(lp425
S'10a'
p426
aS'10a'
p427
aS'11s'
p428
aS'f'
p429
aS'12s'
p430
aS'9c'
p431
aS'10c'
p432
aS'f'
p433
aa(lp434
S'10a'
p435
aS'12s'
p436
aS'12s'
p437
aS'11s'
p438
aS'f'
p439
aS'f'
p440
aS'10b'
p441
aS'11s'
p442
aa(lp443
S'11s'
p444
aS'11s'
p445
aS'10a'
p446
aS'10b'
p447
aS'f'
p448
aS'9b'
p449
aS'f'
p450
aS'f'
p451
aa(lp452
S'10c'
p453
aS'11s'
p454
aS'12s'
p455
aS'f'
p456
aS'f'
p457
aS'10a'
p458
aS'12s'
p459
aS'12s'
p460
aa(lp461
S'f'
p462
aS'11s'
p463
aS'9a'
p464
aS'12s'
p465
aS'11s'
p466
aS'f'
p467
aS'12s'
p468
aS'12s'
p469
aa(lp470
S'f'
p471
aS'f'
p472
aS'11s'
p473
aS'11s'
p474
aS'12s'
p475
aS'12s'
p476
aS'f'
p477
aS'f'
p478
aasg74
S'female'
p479
sg77
I00
sg78
g425
sg79
S'(She is absent today.)\n\nSession:1\x0e\t2\t3\t4\t\tRECESS\t\t5\t6\t7\t8\t\t\nStatus :10A \t10A \t11S \tchemistry lab \tCHEMISTRY LAB\t12S \t9C \t10C \tchemistry lab \t'
p480
sg81
(lp481
S'10'
p482
aS'11'
p483
aS'12'
p484
aS'9'
p485
asg87
S'chemistry lab'
p486
sg89
g419
sg90
S'chemistry lab'
p487
sg92
g423
sg93
(lp488
sg170
(lp489
S'chemistry'
p490
asg174
(dp491
sbasS'custom_proxies'
p492
(lp493
sS'removed_proxies'
p494
(lp495
sS's_proxies'
p496
(lp497
g95
a(lp498
g4
ag416
ag427
aI1
aag253
a(lp499
g180
ag96
ag109
aI4
aa(lp500
g180
ag416
ag430
aI4
aag331
a(lp501
g258
ag416
ag431
aI5
aa(lp502
g258
ag96
ag110
aI5
aasS'gen_proxies'
p503
(lp504
g95
ag253
ag331
asS'clamoni'
p505
(dp506
g343
(lp507
I2
asg344
(lp508
I3
asg345
(lp509
I6
asg341
(lp510
I0
asg432
(lp511
I6
asg431
(lp512
I5
asg426
(lp513
I0
aI1
asg109
(lp514
I4
asg430
(lp515
I4
asg110
(lp516
I5
asg428
(lp517
I2
asg111
(lp518
I6
asg108
(lp519
I3
asg107
(lp520
I2
assS'teachers'
p521
(lp522
g96
ag258
ag416
ag180
ag254
ag4
asS'comp_proxies'
p523
(lp524
g95
ag253
ag331
asg93
(lp525
g95
ag253
ag331
asb.