(i__main__
Stats
p0
(dp1
S'proxy_teachers'
p2
(lp3
(i__main__
Teacher
p4
(dp5
S'status'
p6
S'He is most probably in class 5A (in place of Rahul).'
p7
sS'assigned'
p8
(dp9
I0
I00
sI1
S'5a'
p10
sI2
I00
sI3
I00
sI4
S'3c'
p11
sI5
I00
sI6
I00
sI7
I00
ssS'first_name'
p12
S'Mulayam'
p13
sS'last_name'
p14
S'Modi'
p15
sS'sched'
p16
S"Note: 'f' stands for free session and 'r' stands for recess.\n\nSession  : 1\t2\t3\t4\tr\t5\t6\t7\t8\t\n________________________________________________________________________________\n\nMonday   : 8B\tf\t7C\t11C\tr\t11C\t7C\t7A\tf\t\nTuesday  : 8B\t11C\t9A\tf\tr\t8B\t7C\t7A\tf\t\nWednesday: 8B\t7C\tf\t10C\tr\tf\t11C\t7A\tf\t\nThursday : 8B\t8B\t11C\tf\tr\t7C\t7A\tf\t11C\t\nFriday   : 8B\tf\t7A\t7C\tr\tf\t8B\t11C\t11C   <- today\nSaturday : 7A\t11C\tf\t7C\tr\t7C\t10C\tf\t9A"
p17
sS'name'
p18
S'Mulayam Modi'
p19
sS'schedule'
p20
(lp21
(lp22
S'8b'
p23
aS'f'
p24
aS'7c'
p25
aS'11c'
p26
aS'11c'
p27
aS'7c'
p28
aS'7a'
p29
aS'f'
p30
aa(lp31
S'8b'
p32
aS'11c'
p33
aS'9a'
p34
aS'f'
p35
aS'8b'
p36
aS'7c'
p37
aS'7a'
p38
aS'f'
p39
aa(lp40
S'8b'
p41
aS'7c'
p42
aS'f'
p43
aS'10c'
p44
aS'f'
p45
aS'11c'
p46
aS'7a'
p47
aS'f'
p48
aa(lp49
S'8b'
p50
aS'8b'
p51
aS'11c'
p52
aS'f'
p53
aS'7c'
p54
aS'7a'
p55
aS'f'
p56
aS'11c'
p57
aa(lp58
S'8b'
p59
ag10
aS'7a'
p60
aS'7c'
p61
ag11
aS'8b'
p62
aS'11c'
p63
aS'11c'
p64
aa(lp65
S'7a'
p66
aS'11c'
p67
aS'f'
p68
aS'7c'
p69
aS'7c'
p70
aS'10c'
p71
aS'f'
p72
aS'9a'
p73
aasS'gender'
p74
S'male'
p75
sS'pres_pos'
p76
g10
sS'is_present'
p77
I01
sS'today_sched'
p78
g58
sS'tod_sched'
p79
S'Session:1\t2\x0e\t\t3\t4\tRECESS\t\t5\t\t6\t7\t8\t\nStatus :8B \t5A(proxy) \t7A \t7C \tSTAFF ROOM\t3C(proxy) \t8B \t11C \t11C \t'
p80
sS'classes'
p81
(lp82
S'10'
p83
aS'11'
p84
aS'7'
p85
aS'8'
p86
aS'9'
p87
asS'recess_pos'
p88
S'staff room'
p89
sS'saved_assignments'
p90
g9
sS'free_pos'
p91
S'library'
p92
sS'title_name'
p93
g13
sS'proxies'
p94
(lp95
(lp96
g4
a(i__main__
Teacher
p97
(dp98
g6
S'He is absent today.'
p99
sg8
(dp100
I0
I00
sI1
g4
sI2
I00
sI3
I00
sI4
g4
sI5
I00
sI6
(i__main__
Teacher
p101
(dp102
g6
S'He is most probably in class 11S (in place of Sonia Singh).'
p103
sg8
(dp104
I0
I00
sI1
S'11s'
p105
sI2
I00
sI3
I00
sI4
I00
sI5
I00
sI6
S'5b'
p106
sI7
I00
ssg12
S'Narendra'
p107
sg14
S'Gandhi'
p108
sg16
S"Note: 'f' stands for free session and 'r' stands for recess.\n\nSession  : 1\t2\t3\t4\tr\t5\t6\t7\t8\t\n________________________________________________________________________________\n\nMonday   : 5A\tf\t6A\t7B\tr\t8A\t7A\t6A\tf\t\nTuesday  : 5A\t6A\tf\tf\tr\t5A\t6A\tf\t7B\t\nWednesday: 5A\t7A\t6A\tf\tr\t7B\t5B\tf\t6A\t\nThursday : f\t7B\tf\t3C\tr\t6A\t5A\tf\t7A\t\nFriday   : 5A\tf\t7C\t6A\tr\tf\t5A\tf\tf   <- today\nSaturday : f\t7B\t5A\tf\tr\t7A\t8A\tf\t6A"
p109
sg18
S'Narendra Gandhi'
p110
sg20
(lp111
(lp112
S'5a'
p113
aS'f'
p114
aS'6a'
p115
aS'7b'
p116
aS'8a'
p117
aS'7a'
p118
aS'6a'
p119
aS'f'
p120
aa(lp121
S'5a'
p122
aS'6a'
p123
aS'f'
p124
aS'f'
p125
aS'5a'
p126
aS'6a'
p127
aS'f'
p128
aS'7b'
p129
aa(lp130
S'5a'
p131
aS'7a'
p132
aS'6a'
p133
aS'f'
p134
aS'7b'
p135
aS'5b'
p136
aS'f'
p137
aS'6a'
p138
aa(lp139
S'f'
p140
aS'7b'
p141
aS'f'
p142
aS'3c'
p143
aS'6a'
p144
aS'5a'
p145
aS'f'
p146
aS'7a'
p147
aa(lp148
S'5a'
p149
ag105
aS'7c'
p150
aS'6a'
p151
aS'f'
p152
aS'5a'
p153
ag106
aS'f'
p154
aa(lp155
S'f'
p156
aS'7b'
p157
aS'5a'
p158
aS'f'
p159
aS'7a'
p160
aS'8a'
p161
aS'f'
p162
aS'6a'
p163
aasg74
S'male'
p164
sg76
g105
sg77
I01
sg78
g148
sg79
S"Note:'*' denotes that Narendra is free in, or somewhere around library.\n\nSession:1\t2\x0e\t\t3\t4\tRECESS\t5\t\t6\t7\t\t8\t\t\nStatus :5A \t11S(proxy) \t7C \t6A \tGROUND\tlibrary* \t5A \t5B(proxy) \tlibrary* \t"
p165
sg81
(lp166
S'5'
p167
aS'6'
p168
aS'7'
p169
aS'8'
p170
asg88
S'ground'
p171
sg90
g104
sg91
S'library'
p172
sg93
g107
sg94
(lp173
(lp174
g101
a(i__main__
Teacher
p175
(dp176
g6
S'She is absent today.'
p177
sg8
(dp178
I0
I00
sI1
g101
sI2
I00
sI3
I00
sI4
(i__main__
Teacher
p179
(dp180
g6
S'She is most probably in class 10C.'
p181
sg8
(dp182
I0
I00
sI1
I00
sI2
I00
sI3
I00
sI4
S'11s'
p183
sI5
I00
sI6
I00
sI7
I00
ssg12
S'Sonia'
p184
sg14
S'Yadav'
p185
sg16
S"Note: 'f' stands for free session and 'r' stands for recess.\n\nSession  : 1\t2\t3\t4\tr\t5\t6\t7\t8\t\n________________________________________________________________________________\n\nMonday   : 10B\t10B\t12S\t11S\tr\t11S\tf\t10A\t10A\t\nTuesday  : f\t11S\tf\t12S\tr\t12S\tf\t9B\t9B\t\nWednesday: 9C\t9C\t12S\tf\tr\t9B\t11S\tf\tf\t\nThursday : 12S\t12S\t11S\tf\tr\t9A\t9A\t10B\t11S\t\nFriday   : f\t10C\t10C\t9A\tr\tf\t12S\t11S\t11S   <- today\nSaturday : f\t11S\t12S\t12S\tr\t9C\tf\t10C\t10A"
p186
sg18
S'Sonia Yadav'
p187
sg20
(lp188
(lp189
S'10b'
p190
aS'10b'
p191
aS'12s'
p192
aS'11s'
p193
aS'11s'
p194
aS'f'
p195
aS'10a'
p196
aS'10a'
p197
aa(lp198
S'f'
p199
aS'11s'
p200
aS'f'
p201
aS'12s'
p202
aS'12s'
p203
aS'f'
p204
aS'9b'
p205
aS'9b'
p206
aa(lp207
S'9c'
p208
aS'9c'
p209
aS'12s'
p210
aS'f'
p211
aS'9b'
p212
aS'11s'
p213
aS'f'
p214
aS'f'
p215
aa(lp216
S'12s'
p217
aS'12s'
p218
aS'11s'
p219
aS'f'
p220
aS'9a'
p221
aS'9a'
p222
aS'10b'
p223
aS'11s'
p224
aa(lp225
S'f'
p226
aS'10c'
p227
aS'10c'
p228
aS'9a'
p229
ag183
aS'12s'
p230
aS'11s'
p231
aS'11s'
p232
aa(lp233
S'f'
p234
aS'11s'
p235
aS'12s'
p236
aS'12s'
p237
aS'9c'
p238
aS'f'
p239
aS'10c'
p240
aS'10a'
p241
aasg74
S'female'
p242
sg76
g227
sg77
I01
sg78
g225
sg79
S"Note:'*' denotes that Sonia is free in, or somewhere around biology lab.\n\nSession:1\t\t2\x0e\t3\t4\tRECESS\t5\t\t6\t7\t8\t\nStatus :biology lab* \t10C \t10C \t9A \tGROUND\t11S(proxy) \t12S \t11S \t11S \t"
p243
sg81
(lp244
S'10'
p245
aS'11'
p246
aS'12'
p247
aS'9'
p248
asg88
S'ground'
p249
sg90
g182
sg91
S'biology lab'
p250
sg93
g187
sg94
(lp251
(lp252
g179
ag175
ag183
aI4
aasS'subjects'
p253
(lp254
S'biology'
p255
asS'history'
p256
(dp257
sbsI5
I00
sI6
I00
sI7
(i__main__
Teacher
p258
(dp259
g6
S'He is most probably in class 9A.'
p260
sg8
(dp261
I0
I00
sI1
I00
sI2
I00
sI3
I00
sI4
I00
sI5
I00
sI6
I00
sI7
S'12s'
p262
ssg12
S'Albert'
p263
sg14
S'Newton'
p264
sg16
S"Note: 'f' stands for free session and 'r' stands for recess.\n\nSession  : 1\t2\t3\t4\tr\t5\t6\t7\t8\t\n________________________________________________________________________________\n\nMonday   : 9A\t9B\t10A\t10B\tr\tf\t11S\t12S\tf\t\nTuesday  : 10B\t10A\tf\tf\tr\t9A\t12S\t12S\tf\t\nWednesday: 10B\t12S\t10B\tf\tr\tf\t9A\tf\t10A\t\nThursday : 11S\t10A\t10B\t11S\tr\t12S\t9B\tf\tf\t\nFriday   : f\t9A\t9B\t10A\tr\t10B\t11S\t10A\tf   <- today\nSaturday : f\t12S\t10A\t10B\tr\t9A\t9B\t12S\tf"
p265
sg18
S'Albert Newton'
p266
sg20
(lp267
(lp268
S'9a'
p269
aS'9b'
p270
aS'10a'
p271
aS'10b'
p272
aS'f'
p273
aS'11s'
p274
aS'12s'
p275
aS'f'
p276
aa(lp277
S'10b'
p278
aS'10a'
p279
aS'f'
p280
aS'f'
p281
aS'9a'
p282
aS'12s'
p283
aS'12s'
p284
aS'f'
p285
aa(lp286
S'10b'
p287
aS'12s'
p288
aS'10b'
p289
aS'f'
p290
aS'f'
p291
aS'9a'
p292
aS'f'
p293
aS'10a'
p294
aa(lp295
S'11s'
p296
aS'10a'
p297
aS'10b'
p298
aS'11s'
p299
aS'12s'
p300
aS'9b'
p301
aS'f'
p302
aS'f'
p303
aa(lp304
S'f'
p305
aS'9a'
p306
aS'9b'
p307
aS'10a'
p308
aS'10b'
p309
aS'11s'
p310
aS'10a'
p311
ag262
aa(lp312
S'f'
p313
aS'12s'
p314
aS'10a'
p315
aS'10b'
p316
aS'9a'
p317
aS'9b'
p318
aS'12s'
p319
aS'f'
p320
aasg74
S'male'
p321
sg76
g306
sg77
I01
sg78
g304
sg79
S"Note:'*' denotes that Albert is free in, or somewhere around physics lab.\n\nSession:1\t\t2\x0e\t3\t4\tRECESS\t5\t6\t7\t8\t\t\nStatus :physics lab* \t9A \t9B \t10A \tGROUND\t10B \t11S \t10A \t12S(proxy) \t"
p322
sg81
(lp323
S'10'
p324
aS'11'
p325
aS'12'
p326
aS'9'
p327
asg88
S'ground'
p328
sg90
g261
sg91
S'physics lab'
p329
sg93
g263
sg94
(lp330
(lp331
g258
ag175
ag262
aI7
aasg253
(lp332
S' maths'
p333
aS'physics'
p334
asg256
(dp335
sbssg12
S'Sonia'
p336
sg14
S'Singh'
p337
sg16
S"Note: 'f' stands for free session and 'r' stands for recess.\n\nSession  : 1\t2\t3\t4\tr\t5\t6\t7\t8\t\n________________________________________________________________________________\n\nMonday   : 10A\t10A\t11S\tf\tr\t12S\t9C\t10C\tf\t\nTuesday  : 10A\t12S\t12S\t11S\tr\tf\tf\t10B\t11S\t\nWednesday: 11S\t11S\t10A\t10B\tr\tf\t9B\tf\tf\t\nThursday : 10C\t11S\t12S\tf\tr\tf\t10A\t12S\t12S\t\nFriday   : f\t11S\t9A\t12S\tr\t11S\tf\t12S\t12S   <- today\nSaturday : f\tf\t11S\t11S\tr\t12S\t12S\tf\tf"
p338
sg18
S'Sonia Singh'
p339
sg20
(lp340
(lp341
S'10a'
p342
aS'10a'
p343
aS'11s'
p344
aS'f'
p345
aS'12s'
p346
aS'9c'
p347
aS'10c'
p348
aS'f'
p349
aa(lp350
S'10a'
p351
aS'12s'
p352
aS'12s'
p353
aS'11s'
p354
aS'f'
p355
aS'f'
p356
aS'10b'
p357
aS'11s'
p358
aa(lp359
S'11s'
p360
aS'11s'
p361
aS'10a'
p362
aS'10b'
p363
aS'f'
p364
aS'9b'
p365
aS'f'
p366
aS'f'
p367
aa(lp368
S'10c'
p369
aS'11s'
p370
aS'12s'
p371
aS'f'
p372
aS'f'
p373
aS'10a'
p374
aS'12s'
p375
aS'12s'
p376
aa(lp377
S'f'
p378
ag105
aS'9a'
p379
aS'12s'
p380
ag183
aS'f'
p381
aS'12s'
p382
ag262
aa(lp383
S'f'
p384
aS'f'
p385
aS'11s'
p386
aS'11s'
p387
aS'12s'
p388
aS'12s'
p389
aS'f'
p390
aS'f'
p391
aasg74
S'female'
p392
sg77
I00
sg78
g377
sg79
S'(She is absent today.)\n\nSession:1\t\t2\x0e\t3\t4\tRECESS\t\t5\t6\t\t7\t8\t\nStatus :chemistry lab \t11S \t9A \t12S \tCHEMISTRY LAB\t11S \tchemistry lab \t12S \t12S \t'
p393
sg81
(lp394
S'10'
p395
aS'11'
p396
aS'12'
p397
aS'9'
p398
asg88
S'chemistry lab'
p399
sg90
g178
sg91
S'chemistry lab'
p400
sg93
g339
sg94
(lp401
g174
ag252
ag331
asg253
(lp402
S'chemistry'
p403
asg256
(dp404
sbag105
aI1
aa(lp405
g101
ag97
ag106
aI6
aasg253
(lp406
S'Gujarati'
p407
aS'Spanish'
p408
asg256
(dp409
sbsI7
I00
ssg12
S'Rahul'
p410
sg14
S'Yadav'
p411
sg16
S"Note: 'f' stands for free session and 'r' stands for recess.\n\nSession  : 1\t2\t3\t4\tr\t5\t6\t7\t8\t\n________________________________________________________________________________\n\nMonday   : f\t6B\t4A\t5C\tr\t1A\t2A\t3A\tf\t\nTuesday  : f\tf\t2C\t1A\tr\t3A\t5A\t1B\t4C\t\nWednesday: f\t1C\t4B\t4A\tr\t4C\t7B\tf\t3C\t\nThursday : f\t3B\t2A\t2B\tr\tf\t6A\t5C\t7C\t\nFriday   : f\t5A\t7B\t2C\tr\t3C\t6C\t5B\tf   <- today\nSaturday : f\t1C\t4B\t2B\tr\tf\t5B\t3B\t7A"
p412
sg18
S'Rahul Yadav'
p413
sg20
(lp414
(lp415
S'f'
p416
aS'6b'
p417
aS'4a'
p418
aS'5c'
p419
aS'1a'
p420
aS'2a'
p421
aS'3a'
p422
aS'f'
p423
aa(lp424
S'f'
p425
aS'f'
p426
aS'2c'
p427
aS'1a'
p428
aS'3a'
p429
aS'5a'
p430
aS'1b'
p431
aS'4c'
p432
aa(lp433
S'f'
p434
aS'1c'
p435
aS'4b'
p436
aS'4a'
p437
aS'4c'
p438
aS'7b'
p439
aS'f'
p440
aS'3c'
p441
aa(lp442
S'f'
p443
aS'3b'
p444
aS'2a'
p445
aS'2b'
p446
aS'f'
p447
aS'6a'
p448
aS'5c'
p449
aS'7c'
p450
aa(lp451
S'f'
p452
ag10
aS'7b'
p453
aS'2c'
p454
ag11
aS'6c'
p455
ag106
aS'f'
p456
aa(lp457
S'f'
p458
aS'1c'
p459
aS'4b'
p460
aS'2b'
p461
aS'f'
p462
aS'5b'
p463
aS'3b'
p464
aS'7a'
p465
aasg74
S'male'
p466
sg77
I00
sg78
g451
sg79
S'(He is absent today.)\n\nSession:1\t\t2\x0e\t3\t4\tRECESS\t\t5\t6\t7\t8\t\t\nStatus :music room \t5A \t7B \t2C \tSTAFF ROOM\t3C \t6C \t5B \tmusic room \t'
p467
sg81
(lp468
S'1'
p469
aS'2'
p470
aS'3'
p471
aS'4'
p472
aS'5'
p473
aS'6'
p474
asg88
S'staff room'
p475
sg90
g100
sg91
S'music room'
p476
sg93
g410
sg94
(lp477
g96
a(lp478
g4
ag97
ag11
aI4
aag405
asg253
(lp479
S'Civics'
p480
aS'Music'
p481
asg256
(dp482
sbag10
aI1
aag478
asg253
(lp483
S'economics'
p484
aS'hindi'
p485
aS'social science'
p486
asg256
(dp487
sbag101
ag179
ag258
asS'pres_teachers'
p488
(lp489
g258
ag4
ag179
ag101
asS'abs_teachers'
p490
(lp491
g97
ag175
asS'custom_proxies'
p492
(lp493
sS'removed_proxies'
p494
(lp495
sS's_proxies'
p496
(lp497
g96
a(lp498
g101
ag97
ag10
aI1
aa(lp499
g4
ag175
ag105
aI1
aag174
ag478
a(lp500
g101
ag97
ag11
aI4
aa(lp501
g4
ag175
ag183
aI4
aa(lp502
g101
ag175
ag183
aI4
aa(lp503
g179
ag97
ag11
aI4
aag252
ag405
a(lp504
g101
ag175
ag382
aI6
aag331
a(lp505
g101
ag175
ag262
aI7
aasS'gen_proxies'
p506
(lp507
g96
ag174
ag478
ag252
ag405
ag331
asS'clamoni'
p508
(dp509
g455
(lp510
I5
asg453
(lp511
I2
asg379
(lp512
I2
asg380
(lp513
I3
aI6
asg454
(lp514
I3
assS'teachers'
p515
(lp516
g97
ag179
ag175
ag258
ag4
ag101
asS'comp_proxies'
p517
(lp518
g96
ag174
ag478
ag252
ag405
ag331
asg94
(lp519
g96
ag174
ag478
ag252
ag405
ag331
asb.