(i__main__
Stats
p0
(dp1
S'proxy_teachers'
p2
(lp3
sS'pres_teachers'
p4
(lp5
(i__main__
Teacher
p6
(dp7
S'status'
p8
S'She is most probably near chemistry lab.'
p9
sS'assigned'
p10
(dp11
I0
I00
sI1
I00
sI2
I00
sI3
I00
sI4
I00
sI5
I00
sI6
I00
sI7
I00
ssS'first_name'
p12
S'Sonia'
p13
sS'last_name'
p14
S'Singh'
p15
sS'sched'
p16
S"Note: 'f' stands for free session and 'r' stands for recess.\n\nSession  : 1\t2\t3\t4\tr\t5\t6\t7\t8\t\n________________________________________________________________________________\n\nMonday   : 10A\t10A\t11S\tf\tr\t12S\t9C\t10C\tf\t\nTuesday  : 10A\t12S\t12S\t11S\tr\tf\tf\t10B\t11S\t\nWednesday: 11S\t11S\t10A\t10B\tr\tf\t9B\tf\tf\t\nThursday : 10C\t11S\t12S\tf\tr\tf\t10A\t12S\t12S\t\nFriday   : f\t11S\t9A\t12S\tr\t11S\tf\t12S\t12S\t\nSaturday : f\tf\t11S\t11S\tr\t12S\t12S\tf\tf"
p17
sS'name'
p18
S'Sonia Singh'
p19
sS'schedule'
p20
(lp21
(lp22
S'10a'
p23
aS'10a'
p24
aS'11s'
p25
aS'f'
p26
aS'12s'
p27
aS'9c'
p28
aS'10c'
p29
aS'f'
p30
aa(lp31
S'10a'
p32
aS'12s'
p33
aS'12s'
p34
aS'11s'
p35
aS'f'
p36
aS'f'
p37
aS'10b'
p38
aS'11s'
p39
aa(lp40
S'11s'
p41
aS'11s'
p42
aS'10a'
p43
aS'10b'
p44
aS'f'
p45
aS'9b'
p46
aS'f'
p47
aS'f'
p48
aa(lp49
S'10c'
p50
aS'11s'
p51
aS'12s'
p52
aS'f'
p53
aS'f'
p54
aS'10a'
p55
aS'12s'
p56
aS'12s'
p57
aa(lp58
S'f'
p59
aS'11s'
p60
aS'9a'
p61
aS'12s'
p62
aS'11s'
p63
aS'f'
p64
aS'12s'
p65
aS'12s'
p66
aa(lp67
S'f'
p68
aS'f'
p69
aS'11s'
p70
aS'11s'
p71
aS'12s'
p72
aS'12s'
p73
aS'f'
p74
aS'f'
p75
aasS'gender'
p76
S'female'
p77
sS'is_present'
p78
I01
sS'today_sched'
p79
g40
sS'tod_sched'
p80
S"Note:'*' denotes that Sonia is free in, or somewhere around chemistry lab.\n\nSession : 1\t2\t3\t4\tRECESS\x0e\t\t5\t\t6\t7\t\t8\t\t\nPosition: 11S \t11S \t10A \t10B \tCHEMISTRY LAB\tchemistry lab* \t9B \tchemistry lab* \tchemistry lab* \t"
p81
sS'classes'
p82
(lp83
S'10'
p84
aS'11'
p85
aS'12'
p86
aS'9'
p87
asS'recess_pos'
p88
S'chemistry lab'
p89
sS'pres_pos'
p90
S'r'
p91
sS'free_pos'
p92
S'chemistry lab'
p93
sS'title_name'
p94
g19
sS'proxies'
p95
(lp96
sS'subjects'
p97
(lp98
S'chemistry'
p99
asS'history'
p100
(dp101
sba(i__main__
Teacher
p102
(dp103
g8
S'He is most probably near staff room.'
p104
sg10
(dp105
I0
I00
sI1
I00
sI2
I00
sI3
I00
sI4
I00
sI5
I00
sI6
I00
sI7
I00
ssg12
S'Rahul'
p106
sg14
S'Yadav'
p107
sg16
S"Note: 'f' stands for free session and 'r' stands for recess.\n\nSession  : 1\t2\t3\t4\tr\t5\t6\t7\t8\t\n________________________________________________________________________________\n\nMonday   : f\t6B\t4A\t5C\tr\t1A\t2A\t3A\tf\t\nTuesday  : f\tf\t2C\t1A\tr\t3A\t5A\t1B\t4C\t\nWednesday: f\t1C\t4B\t4A\tr\t4C\t7B\tf\t3C\t\nThursday : f\t3B\t2A\t2B\tr\tf\t6A\t5C\t7C\t\nFriday   : f\t5A\t7B\t2C\tr\t3C\t6C\t5B\tf\t\nSaturday : f\t1C\t4B\t2B\tr\tf\t5B\t3B\t7A"
p108
sg18
S'Rahul Yadav'
p109
sg20
(lp110
(lp111
S'f'
p112
aS'6b'
p113
aS'4a'
p114
aS'5c'
p115
aS'1a'
p116
aS'2a'
p117
aS'3a'
p118
aS'f'
p119
aa(lp120
S'f'
p121
aS'f'
p122
aS'2c'
p123
aS'1a'
p124
aS'3a'
p125
aS'5a'
p126
aS'1b'
p127
aS'4c'
p128
aa(lp129
S'f'
p130
aS'1c'
p131
aS'4b'
p132
aS'4a'
p133
aS'4c'
p134
aS'7b'
p135
aS'f'
p136
aS'3c'
p137
aa(lp138
S'f'
p139
aS'3b'
p140
aS'2a'
p141
aS'2b'
p142
aS'f'
p143
aS'6a'
p144
aS'5c'
p145
aS'7c'
p146
aa(lp147
S'f'
p148
aS'5a'
p149
aS'7b'
p150
aS'2c'
p151
aS'3c'
p152
aS'6c'
p153
aS'5b'
p154
aS'f'
p155
aa(lp156
S'f'
p157
aS'1c'
p158
aS'4b'
p159
aS'2b'
p160
aS'f'
p161
aS'5b'
p162
aS'3b'
p163
aS'7a'
p164
aasg76
S'male'
p165
sg78
I01
sg79
g129
sg80
S"Note:'*' denotes that Rahul is free in, or somewhere around music room.\n\nSession : 1\t\t2\t3\t4\tRECESS\x0e\t\t5\t6\t7\t\t8\t\nPosition: music room* \t1C \t4B \t4A \tSTAFF ROOM\t4C \t7B \tmusic room* \t3C \t"
p166
sg82
(lp167
S'1'
p168
aS'2'
p169
aS'3'
p170
aS'4'
p171
aS'5'
p172
aS'6'
p173
asg88
S'staff room'
p174
sg90
g91
sg92
S'music room'
p175
sg94
g106
sg95
(lp176
sg97
(lp177
S'Civics'
p178
aS'Music'
p179
asg100
(dp180
sba(i__main__
Teacher
p181
(dp182
g8
S'He is most probably near staff room.'
p183
sg10
(dp184
I0
I00
sI1
I00
sI2
I00
sI3
I00
sI4
I00
sI5
I00
sI6
I00
sI7
I00
ssg12
S'Mulayam'
p185
sg14
S'Modi'
p186
sg16
S"Note: 'f' stands for free session and 'r' stands for recess.\n\nSession  : 1\t2\t3\t4\tr\t5\t6\t7\t8\t\n________________________________________________________________________________\n\nMonday   : 8B\tf\t7C\t11C\tr\t11C\t7C\t7A\tf\t\nTuesday  : 8B\t11C\t9A\tf\tr\t8B\t7C\t7A\tf\t\nWednesday: 8B\t7C\tf\t10C\tr\tf\t11C\t7A\tf\t\nThursday : 8B\t8B\t11C\tf\tr\t7C\t7A\tf\t11C\t\nFriday   : 8B\tf\t7A\t7C\tr\tf\t8B\t11C\t11C\t\nSaturday : 7A\t11C\tf\t7C\tr\t7C\t10C\tf\t9A"
p187
sg18
S'Mulayam Modi'
p188
sg20
(lp189
(lp190
S'8b'
p191
aS'f'
p192
aS'7c'
p193
aS'11c'
p194
aS'11c'
p195
aS'7c'
p196
aS'7a'
p197
aS'f'
p198
aa(lp199
S'8b'
p200
aS'11c'
p201
aS'9a'
p202
aS'f'
p203
aS'8b'
p204
aS'7c'
p205
aS'7a'
p206
aS'f'
p207
aa(lp208
S'8b'
p209
aS'7c'
p210
aS'f'
p211
aS'10c'
p212
aS'f'
p213
aS'11c'
p214
aS'7a'
p215
aS'f'
p216
aa(lp217
S'8b'
p218
aS'8b'
p219
aS'11c'
p220
aS'f'
p221
aS'7c'
p222
aS'7a'
p223
aS'f'
p224
aS'11c'
p225
aa(lp226
S'8b'
p227
aS'f'
p228
aS'7a'
p229
aS'7c'
p230
aS'f'
p231
aS'8b'
p232
aS'11c'
p233
aS'11c'
p234
aa(lp235
S'7a'
p236
aS'11c'
p237
aS'f'
p238
aS'7c'
p239
aS'7c'
p240
aS'10c'
p241
aS'f'
p242
aS'9a'
p243
aasg76
S'male'
p244
sg78
I01
sg79
g208
sg80
S"Note:'*' denotes that Mulayam is free in, or somewhere around library.\n\nSession : 1\t2\t3\t\t4\tRECESS\x0e\t\t5\t\t6\t7\t8\t\t\nPosition: 8B \t7C \tlibrary* \t10C \tSTAFF ROOM\tlibrary* \t11C \t7A \tlibrary* \t"
p245
sg82
(lp246
S'10'
p247
aS'11'
p248
aS'7'
p249
aS'8'
p250
aS'9'
p251
asg88
S'staff room'
p252
sg90
g91
sg92
S'library'
p253
sg94
g185
sg95
(lp254
sg97
(lp255
S'economics'
p256
aS'hindi'
p257
aS'social science'
p258
asg100
(dp259
sbasS'abs_teachers'
p260
(lp261
(i__main__
Teacher
p262
(dp263
g8
S'He is absent today.'
p264
sg10
(dp265
I0
I00
sI1
I00
sI2
I00
sI3
I00
sI4
I00
sI5
I00
sI6
I00
sI7
I00
ssg12
S'Narendra'
p266
sg14
S'Gandhi'
p267
sg16
S"Note: 'f' stands for free session and 'r' stands for recess.\n\nSession  : 1\t2\t3\t4\tr\t5\t6\t7\t8\t\n________________________________________________________________________________\n\nMonday   : 5A\tf\t6A\t7B\tr\t8A\t7A\t6A\tf\t\nTuesday  : 5A\t6A\tf\tf\tr\t5A\t6A\tf\t7B\t\nWednesday: 5A\t7A\t6A\tf\tr\t7B\t5B\tf\t6A\t\nThursday : f\t7B\tf\t3C\tr\t6A\t5A\tf\t7A\t\nFriday   : 5A\tf\t7C\t6A\tr\tf\t5A\tf\tf\t\nSaturday : f\t7B\t5A\tf\tr\t7A\t8A\tf\t6A"
p268
sg18
S'Narendra Gandhi'
p269
sg20
(lp270
(lp271
S'5a'
p272
aS'f'
p273
aS'6a'
p274
aS'7b'
p275
aS'8a'
p276
aS'7a'
p277
aS'6a'
p278
aS'f'
p279
aa(lp280
S'5a'
p281
aS'6a'
p282
aS'f'
p283
aS'f'
p284
aS'5a'
p285
aS'6a'
p286
aS'f'
p287
aS'7b'
p288
aa(lp289
S'5a'
p290
aS'7a'
p291
aS'6a'
p292
aS'f'
p293
aS'7b'
p294
aS'5b'
p295
aS'f'
p296
aS'6a'
p297
aa(lp298
S'f'
p299
aS'7b'
p300
aS'f'
p301
aS'3c'
p302
aS'6a'
p303
aS'5a'
p304
aS'f'
p305
aS'7a'
p306
aa(lp307
S'5a'
p308
aS'f'
p309
aS'7c'
p310
aS'6a'
p311
aS'f'
p312
aS'5a'
p313
aS'f'
p314
aS'f'
p315
aa(lp316
S'f'
p317
aS'7b'
p318
aS'5a'
p319
aS'f'
p320
aS'7a'
p321
aS'8a'
p322
aS'f'
p323
aS'6a'
p324
aasg76
S'male'
p325
sg78
I00
sg79
g289
sg80
S'Session : 1\t2\t3\t4\t\tRECESS\x0e\t5\t6\t7\t\t8\t\nPosition: 5A \t7A \t6A \tlibrary \tGROUND\t7B \t5B \tlibrary \t6A \t'
p326
sg82
(lp327
S'5'
p328
aS'6'
p329
aS'7'
p330
aS'8'
p331
asg88
S'ground'
p332
sg92
S'library'
p333
sg94
g266
sg95
(lp334
sg97
(lp335
S'Gujarati'
p336
aS'Spanish'
p337
asg100
(dp338
sba(i__main__
Teacher
p339
(dp340
g8
S'She is absent today.'
p341
sg10
(dp342
I0
I00
sI1
I00
sI2
I00
sI3
I00
sI4
I00
sI5
I00
sI6
I00
sI7
I00
ssg12
S'Sonia'
p343
sg14
S'Yadav'
p344
sg16
S"Note: 'f' stands for free session and 'r' stands for recess.\n\nSession  : 1\t2\t3\t4\tr\t5\t6\t7\t8\t\n________________________________________________________________________________\n\nMonday   : 10B\t10B\t12S\t11S\tr\t11S\tf\t10A\t10A\t\nTuesday  : f\t11S\tf\t12S\tr\t12S\tf\t9B\t9B\t\nWednesday: 9C\t9C\t12S\tf\tr\t9B\t11S\tf\tf\t\nThursday : 12S\t12S\t11S\tf\tr\t9A\t9A\t10B\t11S\t\nFriday   : f\t10C\t10C\t9A\tr\tf\t12S\t11S\t11S\t\nSaturday : f\t11S\t12S\t12S\tr\t9C\tf\t10C\t10A"
p345
sg18
S'Sonia Yadav'
p346
sg20
(lp347
(lp348
S'10b'
p349
aS'10b'
p350
aS'12s'
p351
aS'11s'
p352
aS'11s'
p353
aS'f'
p354
aS'10a'
p355
aS'10a'
p356
aa(lp357
S'f'
p358
aS'11s'
p359
aS'f'
p360
aS'12s'
p361
aS'12s'
p362
aS'f'
p363
aS'9b'
p364
aS'9b'
p365
aa(lp366
S'9c'
p367
aS'9c'
p368
aS'12s'
p369
aS'f'
p370
aS'9b'
p371
aS'11s'
p372
aS'f'
p373
aS'f'
p374
aa(lp375
S'12s'
p376
aS'12s'
p377
aS'11s'
p378
aS'f'
p379
aS'9a'
p380
aS'9a'
p381
aS'10b'
p382
aS'11s'
p383
aa(lp384
S'f'
p385
aS'10c'
p386
aS'10c'
p387
aS'9a'
p388
aS'f'
p389
aS'12s'
p390
aS'11s'
p391
aS'11s'
p392
aa(lp393
S'f'
p394
aS'11s'
p395
aS'12s'
p396
aS'12s'
p397
aS'9c'
p398
aS'f'
p399
aS'10c'
p400
aS'10a'
p401
aasg76
S'female'
p402
sg78
I00
sg79
g366
sg80
S'Session : 1\t2\t3\t4\t\tRECESS\x0e\t5\t6\t7\t\t8\t\t\nPosition: 9C \t9C \t12S \tbiology lab \tGROUND\t9B \t11S \tbiology lab \tbiology lab \t'
p403
sg82
(lp404
S'10'
p405
aS'11'
p406
aS'12'
p407
aS'9'
p408
asg88
S'ground'
p409
sg92
S'biology lab'
p410
sg94
g346
sg95
(lp411
sg97
(lp412
S'biology'
p413
asg100
(dp414
sbasS'custom_proxies'
p415
(lp416
sS'removed_proxies'
p417
(lp418
sS's_proxies'
p419
(lp420
(lp421
g102
ag262
ag290
aI0
aa(lp422
g102
ag339
ag367
aI0
aa(lp423
g181
ag262
ag292
aI2
aa(lp424
g181
ag339
ag369
aI2
aa(lp425
g6
ag262
ag294
aI4
aa(lp426
g181
ag262
ag294
aI4
aa(lp427
g6
ag339
ag371
aI4
aa(lp428
g181
ag339
ag371
aI4
aa(lp429
g6
ag262
ag297
aI7
aa(lp430
g181
ag262
ag297
aI7
aasS'gen_proxies'
p431
(lp432
sS'clamoni'
p433
(dp434
g292
(lp435
I2
aI7
asg294
(lp436
I4
asg291
(lp437
I1
asg367
(lp438
I0
aI1
asg371
(lp439
I4
asg369
(lp440
I2
asg372
(lp441
I5
asg290
(lp442
I0
asg295
(lp443
I5
assS'teachers'
p444
(lp445
g181
ag102
ag262
ag6
ag339
asg95
(lp446
sb.