(i__main__
Stats
p0
(dp1
S'proxy_teachers'
p2
(lp3
(i__main__
Teacher
p4
(dp5
S'status'
p6
S'He is most probably in class 1A.'
p7
sS'assigned'
p8
(dp9
I0
S'10a'
p10
sI1
I00
sI2
I00
sI3
I00
sI4
I00
sI5
I00
sI6
I00
sI7
I00
ssS'first_name'
p11
S'Rahul'
p12
sS'last_name'
p13
S'Yadav'
p14
sS'sched'
p15
S"Note: 'f' stands for free session and 'r' stands for recess.\n\nSession  : 1\t2\t3\t4\tr\t5\t6\t7\t8\t\n________________________________________________________________________________\n\nMonday   : f\t6B\t4A\t5C\tr\t1A\t2A\t3A\tf   <- today\nTuesday  : f\tf\t2C\t1A\tr\t3A\t5A\t1B\t4C\t\nWednesday: f\t1C\t4B\t4A\tr\t4C\t7B\tf\t3C\t\nThursday : f\t3B\t2A\t2B\tr\tf\t6A\t5C\t7C\t\nFriday   : f\t5A\t7B\t2C\tr\t3C\t6C\t5B\tf\t\nSaturday : f\t1C\t4B\t2B\tr\tf\t5B\t3B\t7A"
p16
sS'name'
p17
S'Rahul Yadav'
p18
sS'schedule'
p19
(lp20
(lp21
g10
aS'6b'
p22
aS'4a'
p23
aS'5c'
p24
aS'1a'
p25
aS'2a'
p26
aS'3a'
p27
aS'f'
p28
aa(lp29
S'f'
p30
aS'f'
p31
aS'2c'
p32
aS'1a'
p33
aS'3a'
p34
aS'5a'
p35
aS'1b'
p36
aS'4c'
p37
aa(lp38
S'f'
p39
aS'1c'
p40
aS'4b'
p41
aS'4a'
p42
aS'4c'
p43
aS'7b'
p44
aS'f'
p45
aS'3c'
p46
aa(lp47
S'f'
p48
aS'3b'
p49
aS'2a'
p50
aS'2b'
p51
aS'f'
p52
aS'6a'
p53
aS'5c'
p54
aS'7c'
p55
aa(lp56
S'f'
p57
aS'5a'
p58
aS'7b'
p59
aS'2c'
p60
aS'3c'
p61
aS'6c'
p62
aS'5b'
p63
aS'f'
p64
aa(lp65
S'f'
p66
aS'1c'
p67
aS'4b'
p68
aS'2b'
p69
aS'f'
p70
aS'5b'
p71
aS'3b'
p72
aS'7a'
p73
aasS'gender'
p74
S'male'
p75
sS'pres_pos'
p76
g25
sS'is_present'
p77
I01
sS'today_sched'
p78
g21
sS'tod_sched'
p79
S"Note:'*' denotes that Rahul is free in, or somewhere around music room.\n\nSession:1\t\t2\t3\t4\tRECESS\t\t5\x0e\t6\t7\t8\t\t\nStatus :10A(proxy) \t6B \t4A \t5C \tSTAFF ROOM\t1A \t2A \t3A \tmusic room* \t"
p80
sS'classes'
p81
(lp82
S'1'
p83
aS'2'
p84
aS'3'
p85
aS'4'
p86
aS'5'
p87
aS'6'
p88
asS'recess_pos'
p89
S'staff room'
p90
sS'saved_assignments'
p91
g9
sS'free_pos'
p92
S'music room'
p93
sS'title_name'
p94
g12
sS'proxies'
p95
(lp96
(lp97
g4
a(i__main__
Teacher
p98
(dp99
g6
S'She is absent today.'
p100
sg8
(dp101
I0
g4
sI1
(i__main__
Teacher
p102
(dp103
g6
S'He is most probably in class 11C.'
p104
sg8
(dp105
I0
I00
sI1
S'10a'
p106
sI2
I00
sI3
I00
sI4
I00
sI5
I00
sI6
I00
sI7
I00
ssg11
S'Mulayam'
p107
sg13
S'Modi'
p108
sg15
S"Note: 'f' stands for free session and 'r' stands for recess.\n\nSession  : 1\t2\t3\t4\tr\t5\t6\t7\t8\t\n________________________________________________________________________________\n\nMonday   : 8B\tf\t7C\t11C\tr\t11C\t7C\t7A\tf   <- today\nTuesday  : 8B\t11C\t9A\tf\tr\t8B\t7C\t7A\tf\t\nWednesday: 8B\t7C\tf\t10C\tr\tf\t11C\t7A\tf\t\nThursday : 8B\t8B\t11C\tf\tr\t7C\t7A\tf\t11C\t\nFriday   : 8B\tf\t7A\t7C\tr\tf\t8B\t11C\t11C\t\nSaturday : 7A\t11C\tf\t7C\tr\t7C\t10C\tf\t9A"
p109
sg17
S'Mulayam Modi'
p110
sg19
(lp111
(lp112
S'8b'
p113
ag106
aS'7c'
p114
aS'11c'
p115
aS'11c'
p116
aS'7c'
p117
aS'7a'
p118
aS'f'
p119
aa(lp120
S'8b'
p121
aS'11c'
p122
aS'9a'
p123
aS'f'
p124
aS'8b'
p125
aS'7c'
p126
aS'7a'
p127
aS'f'
p128
aa(lp129
S'8b'
p130
aS'7c'
p131
aS'f'
p132
aS'10c'
p133
aS'f'
p134
aS'11c'
p135
aS'7a'
p136
aS'f'
p137
aa(lp138
S'8b'
p139
aS'8b'
p140
aS'11c'
p141
aS'f'
p142
aS'7c'
p143
aS'7a'
p144
aS'f'
p145
aS'11c'
p146
aa(lp147
S'8b'
p148
aS'f'
p149
aS'7a'
p150
aS'7c'
p151
aS'f'
p152
aS'8b'
p153
aS'11c'
p154
aS'11c'
p155
aa(lp156
S'7a'
p157
aS'11c'
p158
aS'f'
p159
aS'7c'
p160
aS'7c'
p161
aS'10c'
p162
aS'f'
p163
aS'9a'
p164
aasg74
S'male'
p165
sg76
g116
sg77
I01
sg78
g112
sg79
S"Note:'*' denotes that Mulayam is free in, or somewhere around library.\n\nSession:1\t2\t\t3\t4\tRECESS\t\t5\x0e\t6\t7\t8\t\t\nStatus :8B \t10A(proxy) \t7C \t11C \tSTAFF ROOM\t11C \t7C \t7A \tlibrary* \t"
p166
sg81
(lp167
S'10'
p168
aS'11'
p169
aS'7'
p170
aS'8'
p171
aS'9'
p172
asg89
S'staff room'
p173
sg91
g105
sg92
S'library'
p174
sg94
g107
sg95
(lp175
(lp176
g102
ag98
ag106
aI1
aasS'subjects'
p177
(lp178
S'economics'
p179
aS'hindi'
p180
aS'social science'
p181
asS'history'
p182
(dp183
sbsI2
I00
sI3
I00
sI4
I00
sI5
(i__main__
Teacher
p184
(dp185
g6
S'She is most probably in class 11S.'
p186
sg8
(dp187
I0
I00
sI1
I00
sI2
I00
sI3
I00
sI4
I00
sI5
S'9c'
p188
sI6
I00
sI7
I00
ssg11
S'Sonia'
p189
sg13
S'Yadav'
p190
sg15
S"Note: 'f' stands for free session and 'r' stands for recess.\n\nSession  : 1\t2\t3\t4\tr\t5\t6\t7\t8\t\n________________________________________________________________________________\n\nMonday   : 10B\t10B\t12S\t11S\tr\t11S\tf\t10A\t10A   <- today\nTuesday  : f\t11S\tf\t12S\tr\t12S\tf\t9B\t9B\t\nWednesday: 9C\t9C\t12S\tf\tr\t9B\t11S\tf\tf\t\nThursday : 12S\t12S\t11S\tf\tr\t9A\t9A\t10B\t11S\t\nFriday   : f\t10C\t10C\t9A\tr\tf\t12S\t11S\t11S\t\nSaturday : f\t11S\t12S\t12S\tr\t9C\tf\t10C\t10A"
p191
sg17
S'Sonia Yadav'
p192
sg19
(lp193
(lp194
S'10b'
p195
aS'10b'
p196
aS'12s'
p197
aS'11s'
p198
aS'11s'
p199
ag188
aS'10a'
p200
aS'10a'
p201
aa(lp202
S'f'
p203
aS'11s'
p204
aS'f'
p205
aS'12s'
p206
aS'12s'
p207
aS'f'
p208
aS'9b'
p209
aS'9b'
p210
aa(lp211
S'9c'
p212
aS'9c'
p213
aS'12s'
p214
aS'f'
p215
aS'9b'
p216
aS'11s'
p217
aS'f'
p218
aS'f'
p219
aa(lp220
S'12s'
p221
aS'12s'
p222
aS'11s'
p223
aS'f'
p224
aS'9a'
p225
aS'9a'
p226
aS'10b'
p227
aS'11s'
p228
aa(lp229
S'f'
p230
aS'10c'
p231
aS'10c'
p232
aS'9a'
p233
aS'f'
p234
aS'12s'
p235
aS'11s'
p236
aS'11s'
p237
aa(lp238
S'f'
p239
aS'11s'
p240
aS'12s'
p241
aS'12s'
p242
aS'9c'
p243
aS'f'
p244
aS'10c'
p245
aS'10a'
p246
aasg74
S'female'
p247
sg76
g199
sg77
I01
sg78
g194
sg79
S'Session:1\t2\t3\t4\tRECESS\t5\x0e\t6\t\t7\t8\t\nStatus :10B \t10B \t12S \t11S \tGROUND\t11S \t9C(proxy) \t10A \t10A \t'
p248
sg81
(lp249
S'10'
p250
aS'11'
p251
aS'12'
p252
aS'9'
p253
asg89
S'ground'
p254
sg91
g187
sg92
S'biology lab'
p255
sg94
g192
sg95
(lp256
(lp257
g184
ag98
ag188
aI5
aasg177
(lp258
S'biology'
p259
asg182
(dp260
sbsI6
I00
sI7
I00
ssg11
S'Sonia'
p261
sg13
S'Singh'
p262
sg15
S"Note: 'f' stands for free session and 'r' stands for recess.\n\nSession  : 1\t2\t3\t4\tr\t5\t6\t7\t8\t\n________________________________________________________________________________\n\nMonday   : 10A\t10A\t11S\tf\tr\t12S\t9C\t10C\tf   <- today\nTuesday  : 10A\t12S\t12S\t11S\tr\tf\tf\t10B\t11S\t\nWednesday: 11S\t11S\t10A\t10B\tr\tf\t9B\tf\tf\t\nThursday : 10C\t11S\t12S\tf\tr\tf\t10A\t12S\t12S\t\nFriday   : f\t11S\t9A\t12S\tr\t11S\tf\t12S\t12S\t\nSaturday : f\tf\t11S\t11S\tr\t12S\t12S\tf\tf"
p263
sg17
S'Sonia Singh'
p264
sg19
(lp265
(lp266
g10
ag106
aS'11s'
p267
aS'f'
p268
aS'12s'
p269
ag188
aS'10c'
p270
aS'f'
p271
aa(lp272
S'10a'
p273
aS'12s'
p274
aS'12s'
p275
aS'11s'
p276
aS'f'
p277
aS'f'
p278
aS'10b'
p279
aS'11s'
p280
aa(lp281
S'11s'
p282
aS'11s'
p283
aS'10a'
p284
aS'10b'
p285
aS'f'
p286
aS'9b'
p287
aS'f'
p288
aS'f'
p289
aa(lp290
S'10c'
p291
aS'11s'
p292
aS'12s'
p293
aS'f'
p294
aS'f'
p295
aS'10a'
p296
aS'12s'
p297
aS'12s'
p298
aa(lp299
S'f'
p300
aS'11s'
p301
aS'9a'
p302
aS'12s'
p303
aS'11s'
p304
aS'f'
p305
aS'12s'
p306
aS'12s'
p307
aa(lp308
S'f'
p309
aS'f'
p310
aS'11s'
p311
aS'11s'
p312
aS'12s'
p313
aS'12s'
p314
aS'f'
p315
aS'f'
p316
aasg74
S'female'
p317
sg77
I00
sg78
g266
sg79
S'(She is absent today.)\n\nSession:1\t2\t3\t4\t\tRECESS\t\t5\x0e\t6\t7\t8\t\t\nStatus :10A \t10A \t11S \tchemistry lab \tCHEMISTRY LAB\t12S \t9C \t10C \tchemistry lab \t'
p318
sg81
(lp319
S'10'
p320
aS'11'
p321
aS'12'
p322
aS'9'
p323
asg89
S'chemistry lab'
p324
sg91
g101
sg92
S'chemistry lab'
p325
sg94
g264
sg95
(lp326
g97
ag176
ag257
asg177
(lp327
S'chemistry'
p328
asg182
(dp329
sbag10
aI0
aasg177
(lp330
S'Civics'
p331
aS'Music'
p332
asg182
(dp333
sbag102
a(i__main__
Teacher
p334
(dp335
g6
S'He is most probably in class 8A.'
p336
sg8
(dp337
I0
I00
sI1
S'9b'
p338
sI2
I00
sI3
I00
sI4
I00
sI5
I00
sI6
I00
sI7
I00
ssg11
S'Narendra'
p339
sg13
S'Gandhi'
p340
sg15
S"Note: 'f' stands for free session and 'r' stands for recess.\n\nSession  : 1\t2\t3\t4\tr\t5\t6\t7\t8\t\n________________________________________________________________________________\n\nMonday   : 5A\tf\t6A\t7B\tr\t8A\t7A\t6A\tf   <- today\nTuesday  : 5A\t6A\tf\tf\tr\t5A\t6A\tf\t7B\t\nWednesday: 5A\t7A\t6A\tf\tr\t7B\t5B\tf\t6A\t\nThursday : f\t7B\tf\t3C\tr\t6A\t5A\tf\t7A\t\nFriday   : 5A\tf\t7C\t6A\tr\tf\t5A\tf\tf\t\nSaturday : f\t7B\t5A\tf\tr\t7A\t8A\tf\t6A"
p341
sg17
S'Narendra Gandhi'
p342
sg19
(lp343
(lp344
S'5a'
p345
ag338
aS'6a'
p346
aS'7b'
p347
aS'8a'
p348
aS'7a'
p349
aS'6a'
p350
aS'f'
p351
aa(lp352
S'5a'
p353
aS'6a'
p354
aS'f'
p355
aS'f'
p356
aS'5a'
p357
aS'6a'
p358
aS'f'
p359
aS'7b'
p360
aa(lp361
S'5a'
p362
aS'7a'
p363
aS'6a'
p364
aS'f'
p365
aS'7b'
p366
aS'5b'
p367
aS'f'
p368
aS'6a'
p369
aa(lp370
S'f'
p371
aS'7b'
p372
aS'f'
p373
aS'3c'
p374
aS'6a'
p375
aS'5a'
p376
aS'f'
p377
aS'7a'
p378
aa(lp379
S'5a'
p380
aS'f'
p381
aS'7c'
p382
aS'6a'
p383
aS'f'
p384
aS'5a'
p385
aS'f'
p386
aS'f'
p387
aa(lp388
S'f'
p389
aS'7b'
p390
aS'5a'
p391
aS'f'
p392
aS'7a'
p393
aS'8a'
p394
aS'f'
p395
aS'6a'
p396
aasg74
S'male'
p397
sg76
g348
sg77
I01
sg78
g344
sg79
S"Note:'*' denotes that Narendra is free in, or somewhere around library.\n\nSession:1\t2\t\t3\t4\tRECESS\t5\x0e\t6\t7\t8\t\t\nStatus :5A \t9B(proxy) \t6A \t7B \tGROUND\t8A \t7A \t6A \tlibrary* \t"
p398
sg81
(lp399
S'5'
p400
aS'6'
p401
aS'7'
p402
aS'8'
p403
asg89
S'ground'
p404
sg91
g337
sg92
S'library'
p405
sg94
g339
sg95
(lp406
(lp407
g334
a(i__main__
Teacher
p408
(dp409
g6
S'He is absent today.'
p410
sg8
(dp411
I0
I00
sI1
g334
sI2
I00
sI3
I00
sI4
I00
sI5
I00
sI6
I00
sI7
I00
ssg11
S'Albert'
p412
sg13
S'Newton'
p413
sg15
S"Note: 'f' stands for free session and 'r' stands for recess.\n\nSession  : 1\t2\t3\t4\tr\t5\t6\t7\t8\t\n________________________________________________________________________________\n\nMonday   : 9A\t9B\t10A\t10B\tr\tf\t11S\t12S\tf   <- today\nTuesday  : 10B\t10A\tf\tf\tr\t9A\t12S\t12S\tf\t\nWednesday: 10B\t12S\t10B\tf\tr\tf\t9A\tf\t10A\t\nThursday : 11S\t10A\t10B\t11S\tr\t12S\t9B\tf\tf\t\nFriday   : f\t9A\t9B\t10A\tr\t10B\t11S\t10A\tf\t\nSaturday : f\t12S\t10A\t10B\tr\t9A\t9B\t12S\tf"
p414
sg17
S'Albert Newton'
p415
sg19
(lp416
(lp417
S'9a'
p418
ag338
aS'10a'
p419
aS'10b'
p420
aS'f'
p421
aS'11s'
p422
aS'12s'
p423
aS'f'
p424
aa(lp425
S'10b'
p426
aS'10a'
p427
aS'f'
p428
aS'f'
p429
aS'9a'
p430
aS'12s'
p431
aS'12s'
p432
aS'f'
p433
aa(lp434
S'10b'
p435
aS'12s'
p436
aS'10b'
p437
aS'f'
p438
aS'f'
p439
aS'9a'
p440
aS'f'
p441
aS'10a'
p442
aa(lp443
S'11s'
p444
aS'10a'
p445
aS'10b'
p446
aS'11s'
p447
aS'12s'
p448
aS'9b'
p449
aS'f'
p450
aS'f'
p451
aa(lp452
S'f'
p453
aS'9a'
p454
aS'9b'
p455
aS'10a'
p456
aS'10b'
p457
aS'11s'
p458
aS'10a'
p459
aS'f'
p460
aa(lp461
S'f'
p462
aS'12s'
p463
aS'10a'
p464
aS'10b'
p465
aS'9a'
p466
aS'9b'
p467
aS'12s'
p468
aS'f'
p469
aasg74
S'male'
p470
sg77
I00
sg78
g417
sg79
S'(He is absent today.)\n\nSession:1\t2\t3\t4\tRECESS\t5\x0e\t\t6\t7\t8\t\t\nStatus :9A \t9B \t10A \t10B \tGROUND\tphysics lab \t11S \t12S \tphysics lab \t'
p471
sg81
(lp472
S'10'
p473
aS'11'
p474
aS'12'
p475
aS'9'
p476
asg89
S'ground'
p477
sg91
g411
sg92
S'physics lab'
p478
sg94
g412
sg95
(lp479
g407
asg177
(lp480
S' maths'
p481
aS'physics'
p482
asg182
(dp483
sbag338
aI1
aasg177
(lp484
S'Gujarati'
p485
aS'Spanish'
p486
asg182
(dp487
sbag184
asS'pres_teachers'
p488
(lp489
g102
ag4
ag334
ag184
asS'abs_teachers'
p490
(lp491
g98
ag408
asS'custom_proxies'
p492
(lp493
sS'removed_proxies'
p494
(lp495
sS's_proxies'
p496
(lp497
g97
a(lp498
g4
ag408
ag418
aI0
aag176
a(lp499
g102
ag408
ag338
aI1
aa(lp500
g334
ag98
ag106
aI1
aag407
ag257
a(lp501
g184
ag408
ag422
aI5
aasS'gen_proxies'
p502
(lp503
g97
ag176
ag407
ag257
asS'clamoni'
p504
(dp505
g418
(lp506
I0
asg270
(lp507
I6
asg10
(lp508
I2
asg420
(lp509
I3
asg269
(lp510
I4
aI6
asg267
(lp511
I2
aI5
assS'teachers'
p512
(lp513
g184
ag408
ag334
ag98
ag4
ag102
asS'comp_proxies'
p514
(lp515
g97
ag176
ag407
ag257
asg95
(lp516
g97
ag176
ag407
ag257
asb.