(i__main__
Stats
p0
(dp1
S'proxy_teachers'
p2
(lp3
(i__main__
Teacher
p4
(dp5
S'status'
p6
S'He is most probably in class 9A.'
p7
sS'assigned'
p8
(dp9
I0
S'8b'
p10
sI1
I00
sI2
I00
sI3
I00
sI4
I00
sI5
I00
sI6
I00
sI7
S'11s'
p11
ssS'first_name'
p12
S'Albert'
p13
sS'last_name'
p14
S'Newton'
p15
sS'sched'
p16
S"Note: 'f' stands for free session and 'r' stands for recess.\n\nSession  : 1\t2\t3\t4\tr\t5\t6\t7\t8\t\n________________________________________________________________________________\n\nMonday   : 9A\t9B\t10A\t10B\tr\tf\t11S\t12S\tf\t\nTuesday  : 10B\t10A\tf\tf\tr\t9A\t12S\t12S\tf\t\nWednesday: 10B\t12S\t10B\tf\tr\tf\t9A\tf\t10A\t\nThursday : 11S\t10A\t10B\t11S\tr\t12S\t9B\tf\tf\t\nFriday   : f\t9A\t9B\t10A\tr\t10B\t11S\t10A\tf   <- today\nSaturday : f\t12S\t10A\t10B\tr\t9A\t9B\t12S\tf"
p17
sS'name'
p18
S'Albert Newton'
p19
sS'schedule'
p20
(lp21
(lp22
S'9a'
p23
aS'9b'
p24
aS'10a'
p25
aS'10b'
p26
aS'f'
p27
aS'11s'
p28
aS'12s'
p29
aS'f'
p30
aa(lp31
S'10b'
p32
aS'10a'
p33
aS'f'
p34
aS'f'
p35
aS'9a'
p36
aS'12s'
p37
aS'12s'
p38
aS'f'
p39
aa(lp40
S'10b'
p41
aS'12s'
p42
aS'10b'
p43
aS'f'
p44
aS'f'
p45
aS'9a'
p46
aS'f'
p47
aS'10a'
p48
aa(lp49
S'11s'
p50
aS'10a'
p51
aS'10b'
p52
aS'11s'
p53
aS'12s'
p54
aS'9b'
p55
aS'f'
p56
aS'f'
p57
aa(lp58
g10
aS'9a'
p59
aS'9b'
p60
aS'10a'
p61
aS'10b'
p62
aS'11s'
p63
aS'10a'
p64
ag11
aa(lp65
S'f'
p66
aS'12s'
p67
aS'10a'
p68
aS'10b'
p69
aS'9a'
p70
aS'9b'
p71
aS'12s'
p72
aS'f'
p73
aasS'gender'
p74
S'male'
p75
sS'pres_pos'
p76
g59
sS'is_present'
p77
I01
sS'today_sched'
p78
g58
sS'tod_sched'
p79
S'Session:1\t\t2\x0e\t3\t4\tRECESS\t5\t6\t7\t8\t\t\nStatus :8B(proxy) \t9A \t9B \t10A \tGROUND\t10B \t11S \t10A \t11S(proxy) \t'
p80
sS'classes'
p81
(lp82
S'10'
p83
aS'11'
p84
aS'12'
p85
aS'9'
p86
asS'recess_pos'
p87
S'ground'
p88
sS'saved_assignments'
p89
g9
sS'free_pos'
p90
S'physics lab'
p91
sS'title_name'
p92
g13
sS'proxies'
p93
(lp94
(lp95
g4
a(i__main__
Teacher
p96
(dp97
g6
S'He is absent today.'
p98
sg8
(dp99
I0
g4
sI1
I00
sI2
I00
sI3
I00
sI4
I00
sI5
(i__main__
Teacher
p100
(dp101
g6
S'She is most probably in class 11S.'
p102
sg8
(dp103
I0
I00
sI1
I00
sI2
I00
sI3
I00
sI4
I00
sI5
S'8b'
p104
sI6
I00
sI7
I00
ssg12
S'Sonia'
p105
sg14
S'Singh'
p106
sg16
S"Note: 'f' stands for free session and 'r' stands for recess.\n\nSession  : 1\t2\t3\t4\tr\t5\t6\t7\t8\t\n________________________________________________________________________________\n\nMonday   : 10A\t10A\t11S\tf\tr\t12S\t9C\t10C\tf\t\nTuesday  : 10A\t12S\t12S\t11S\tr\tf\tf\t10B\t11S\t\nWednesday: 11S\t11S\t10A\t10B\tr\tf\t9B\tf\tf\t\nThursday : 10C\t11S\t12S\tf\tr\tf\t10A\t12S\t12S\t\nFriday   : f\t11S\t9A\t12S\tr\t11S\tf\t12S\t12S   <- today\nSaturday : f\tf\t11S\t11S\tr\t12S\t12S\tf\tf"
p107
sg18
S'Sonia Singh'
p108
sg20
(lp109
(lp110
S'10a'
p111
aS'10a'
p112
aS'11s'
p113
aS'f'
p114
aS'12s'
p115
aS'9c'
p116
aS'10c'
p117
aS'f'
p118
aa(lp119
S'10a'
p120
aS'12s'
p121
aS'12s'
p122
aS'11s'
p123
aS'f'
p124
aS'f'
p125
aS'10b'
p126
aS'11s'
p127
aa(lp128
S'11s'
p129
aS'11s'
p130
aS'10a'
p131
aS'10b'
p132
aS'f'
p133
aS'9b'
p134
aS'f'
p135
aS'f'
p136
aa(lp137
S'10c'
p138
aS'11s'
p139
aS'12s'
p140
aS'f'
p141
aS'f'
p142
aS'10a'
p143
aS'12s'
p144
aS'12s'
p145
aa(lp146
S'f'
p147
aS'11s'
p148
aS'9a'
p149
aS'12s'
p150
aS'11s'
p151
ag104
aS'12s'
p152
aS'12s'
p153
aa(lp154
S'f'
p155
aS'f'
p156
aS'11s'
p157
aS'11s'
p158
aS'12s'
p159
aS'12s'
p160
aS'f'
p161
aS'f'
p162
aasg74
S'female'
p163
sg76
g148
sg77
I01
sg78
g146
sg79
S"Note:'*' denotes that Sonia is free in, or somewhere around chemistry lab.\n\nSession:1\t\t2\x0e\t3\t4\tRECESS\t\t5\t6\t\t7\t8\t\nStatus :chemistry lab* \t11S \t9A \t12S \tCHEMISTRY LAB\t11S \t8B(proxy) \t12S \t12S \t"
p164
sg81
(lp165
S'10'
p166
aS'11'
p167
aS'12'
p168
aS'9'
p169
asg87
S'chemistry lab'
p170
sg89
g103
sg90
S'chemistry lab'
p171
sg92
g108
sg93
(lp172
(lp173
g100
ag96
ag104
aI5
aasS'subjects'
p174
(lp175
S'chemistry'
p176
asS'history'
p177
(dp178
sbsI6
(i__main__
Teacher
p179
(dp180
g6
S'He is most probably in class 10C.'
p181
sg8
(dp182
I0
I00
sI1
S'10c'
p183
sI2
I00
sI3
I00
sI4
S'3c'
p184
sI5
I00
sI6
S'11c'
p185
sI7
S'11c'
p186
ssg12
S'Narendra'
p187
sg14
S'Gandhi'
p188
sg16
S"Note: 'f' stands for free session and 'r' stands for recess.\n\nSession  : 1\t2\t3\t4\tr\t5\t6\t7\t8\t\n________________________________________________________________________________\n\nMonday   : 5A\tf\t6A\t7B\tr\t8A\t7A\t6A\tf\t\nTuesday  : 5A\t6A\tf\tf\tr\t5A\t6A\tf\t7B\t\nWednesday: 5A\t7A\t6A\tf\tr\t7B\t5B\tf\t6A\t\nThursday : f\t7B\tf\t3C\tr\t6A\t5A\tf\t7A\t\nFriday   : 5A\tf\t7C\t6A\tr\tf\t5A\tf\tf   <- today\nSaturday : f\t7B\t5A\tf\tr\t7A\t8A\tf\t6A"
p189
sg18
S'Narendra Gandhi'
p190
sg20
(lp191
(lp192
S'5a'
p193
aS'f'
p194
aS'6a'
p195
aS'7b'
p196
aS'8a'
p197
aS'7a'
p198
aS'6a'
p199
aS'f'
p200
aa(lp201
S'5a'
p202
aS'6a'
p203
aS'f'
p204
aS'f'
p205
aS'5a'
p206
aS'6a'
p207
aS'f'
p208
aS'7b'
p209
aa(lp210
S'5a'
p211
aS'7a'
p212
aS'6a'
p213
aS'f'
p214
aS'7b'
p215
aS'5b'
p216
aS'f'
p217
aS'6a'
p218
aa(lp219
S'f'
p220
aS'7b'
p221
aS'f'
p222
aS'3c'
p223
aS'6a'
p224
aS'5a'
p225
aS'f'
p226
aS'7a'
p227
aa(lp228
S'5a'
p229
ag183
aS'7c'
p230
aS'6a'
p231
ag184
aS'5a'
p232
ag185
ag186
aa(lp233
S'f'
p234
aS'7b'
p235
aS'5a'
p236
aS'f'
p237
aS'7a'
p238
aS'8a'
p239
aS'f'
p240
aS'6a'
p241
aasg74
S'male'
p242
sg76
g183
sg77
I01
sg78
g228
sg79
S'Session:1\t2\x0e\t\t3\t4\tRECESS\t5\t\t6\t7\t\t8\t\t\nStatus :5A \t10C(proxy) \t7C \t6A \tGROUND\t3C(proxy) \t5A \t11C(proxy) \t11C(proxy) \t'
p243
sg81
(lp244
S'5'
p245
aS'6'
p246
aS'7'
p247
aS'8'
p248
asg87
S'ground'
p249
sg89
g182
sg90
S'library'
p250
sg92
g187
sg93
(lp251
(lp252
g179
a(i__main__
Teacher
p253
(dp254
g6
S'She is absent today.'
p255
sg8
(dp256
I0
I00
sI1
g179
sI2
I00
sI3
I00
sI4
I00
sI5
I00
sI6
I00
sI7
g4
ssg12
S'Sonia'
p257
sg14
S'Yadav'
p258
sg16
S"Note: 'f' stands for free session and 'r' stands for recess.\n\nSession  : 1\t2\t3\t4\tr\t5\t6\t7\t8\t\n________________________________________________________________________________\n\nMonday   : 10B\t10B\t12S\t11S\tr\t11S\tf\t10A\t10A\t\nTuesday  : f\t11S\tf\t12S\tr\t12S\tf\t9B\t9B\t\nWednesday: 9C\t9C\t12S\tf\tr\t9B\t11S\tf\tf\t\nThursday : 12S\t12S\t11S\tf\tr\t9A\t9A\t10B\t11S\t\nFriday   : f\t10C\t10C\t9A\tr\tf\t12S\t11S\t11S   <- today\nSaturday : f\t11S\t12S\t12S\tr\t9C\tf\t10C\t10A"
p259
sg18
S'Sonia Yadav'
p260
sg20
(lp261
(lp262
S'10b'
p263
aS'10b'
p264
aS'12s'
p265
aS'11s'
p266
aS'11s'
p267
aS'f'
p268
aS'10a'
p269
aS'10a'
p270
aa(lp271
S'f'
p272
aS'11s'
p273
aS'f'
p274
aS'12s'
p275
aS'12s'
p276
aS'f'
p277
aS'9b'
p278
aS'9b'
p279
aa(lp280
S'9c'
p281
aS'9c'
p282
aS'12s'
p283
aS'f'
p284
aS'9b'
p285
aS'11s'
p286
aS'f'
p287
aS'f'
p288
aa(lp289
S'12s'
p290
aS'12s'
p291
aS'11s'
p292
aS'f'
p293
aS'9a'
p294
aS'9a'
p295
aS'10b'
p296
aS'11s'
p297
aa(lp298
S'f'
p299
ag183
aS'10c'
p300
aS'9a'
p301
aS'f'
p302
aS'12s'
p303
aS'11s'
p304
ag11
aa(lp305
S'f'
p306
aS'11s'
p307
aS'12s'
p308
aS'12s'
p309
aS'9c'
p310
aS'f'
p311
aS'10c'
p312
aS'10a'
p313
aasg74
S'female'
p314
sg77
I00
sg78
g298
sg79
S'(She is absent today.)\n\nSession:1\t\t2\x0e\t3\t4\tRECESS\t5\t\t6\t7\t8\t\nStatus :biology lab \t10C \t10C \t9A \tGROUND\tbiology lab \t12S \t11S \t11S \t'
p315
sg81
(lp316
S'10'
p317
aS'11'
p318
aS'12'
p319
aS'9'
p320
asg87
S'ground'
p321
sg89
g256
sg90
S'biology lab'
p322
sg92
g260
sg93
(lp323
g252
a(lp324
g4
ag253
ag11
aI7
aasg174
(lp325
S'biology'
p326
asg177
(dp327
sbag183
aI1
aa(lp328
g179
a(i__main__
Teacher
p329
(dp330
g6
S'He is absent today.'
p331
sg8
(dp332
I0
I00
sI1
I00
sI2
I00
sI3
I00
sI4
g179
sI5
I00
sI6
I00
sI7
I00
ssg12
S'Rahul'
p333
sg14
S'Yadav'
p334
sg16
S"Note: 'f' stands for free session and 'r' stands for recess.\n\nSession  : 1\t2\t3\t4\tr\t5\t6\t7\t8\t\n________________________________________________________________________________\n\nMonday   : f\t6B\t4A\t5C\tr\t1A\t2A\t3A\tf\t\nTuesday  : f\tf\t2C\t1A\tr\t3A\t5A\t1B\t4C\t\nWednesday: f\t1C\t4B\t4A\tr\t4C\t7B\tf\t3C\t\nThursday : f\t3B\t2A\t2B\tr\tf\t6A\t5C\t7C\t\nFriday   : f\t5A\t7B\t2C\tr\t3C\t6C\t5B\tf   <- today\nSaturday : f\t1C\t4B\t2B\tr\tf\t5B\t3B\t7A"
p335
sg18
S'Rahul Yadav'
p336
sg20
(lp337
(lp338
S'f'
p339
aS'6b'
p340
aS'4a'
p341
aS'5c'
p342
aS'1a'
p343
aS'2a'
p344
aS'3a'
p345
aS'f'
p346
aa(lp347
S'f'
p348
aS'f'
p349
aS'2c'
p350
aS'1a'
p351
aS'3a'
p352
aS'5a'
p353
aS'1b'
p354
aS'4c'
p355
aa(lp356
S'f'
p357
aS'1c'
p358
aS'4b'
p359
aS'4a'
p360
aS'4c'
p361
aS'7b'
p362
aS'f'
p363
aS'3c'
p364
aa(lp365
S'f'
p366
aS'3b'
p367
aS'2a'
p368
aS'2b'
p369
aS'f'
p370
aS'6a'
p371
aS'5c'
p372
aS'7c'
p373
aa(lp374
S'f'
p375
aS'5a'
p376
aS'7b'
p377
aS'2c'
p378
ag184
aS'6c'
p379
aS'5b'
p380
aS'f'
p381
aa(lp382
S'f'
p383
aS'1c'
p384
aS'4b'
p385
aS'2b'
p386
aS'f'
p387
aS'5b'
p388
aS'3b'
p389
aS'7a'
p390
aasg74
S'male'
p391
sg77
I00
sg78
g374
sg79
S'(He is absent today.)\n\nSession:1\t\t2\x0e\t3\t4\tRECESS\t\t5\t6\t7\t8\t\t\nStatus :music room \t5A \t7B \t2C \tSTAFF ROOM\t3C \t6C \t5B \tmusic room \t'
p392
sg81
(lp393
S'1'
p394
aS'2'
p395
aS'3'
p396
aS'4'
p397
aS'5'
p398
aS'6'
p399
asg87
S'staff room'
p400
sg89
g332
sg90
S'music room'
p401
sg92
g333
sg93
(lp402
g328
asg174
(lp403
S'Civics'
p404
aS'Music'
p405
asg177
(dp406
sbag184
aI4
aa(lp407
g179
ag96
ag185
aI6
aa(lp408
g179
ag96
ag186
aI7
aasg174
(lp409
S'Gujarati'
p410
aS'Spanish'
p411
asg177
(dp412
sbsI7
g179
ssg12
S'Mulayam'
p413
sg14
S'Modi'
p414
sg16
S"Note: 'f' stands for free session and 'r' stands for recess.\n\nSession  : 1\t2\t3\t4\tr\t5\t6\t7\t8\t\n________________________________________________________________________________\n\nMonday   : 8B\tf\t7C\t11C\tr\t11C\t7C\t7A\tf\t\nTuesday  : 8B\t11C\t9A\tf\tr\t8B\t7C\t7A\tf\t\nWednesday: 8B\t7C\tf\t10C\tr\tf\t11C\t7A\tf\t\nThursday : 8B\t8B\t11C\tf\tr\t7C\t7A\tf\t11C\t\nFriday   : 8B\tf\t7A\t7C\tr\tf\t8B\t11C\t11C   <- today\nSaturday : 7A\t11C\tf\t7C\tr\t7C\t10C\tf\t9A"
p415
sg18
S'Mulayam Modi'
p416
sg20
(lp417
(lp418
S'8b'
p419
aS'f'
p420
aS'7c'
p421
aS'11c'
p422
aS'11c'
p423
aS'7c'
p424
aS'7a'
p425
aS'f'
p426
aa(lp427
S'8b'
p428
aS'11c'
p429
aS'9a'
p430
aS'f'
p431
aS'8b'
p432
aS'7c'
p433
aS'7a'
p434
aS'f'
p435
aa(lp436
S'8b'
p437
aS'7c'
p438
aS'f'
p439
aS'10c'
p440
aS'f'
p441
aS'11c'
p442
aS'7a'
p443
aS'f'
p444
aa(lp445
S'8b'
p446
aS'8b'
p447
aS'11c'
p448
aS'f'
p449
aS'7c'
p450
aS'7a'
p451
aS'f'
p452
aS'11c'
p453
aa(lp454
g10
aS'f'
p455
aS'7a'
p456
aS'7c'
p457
aS'f'
p458
ag104
ag185
ag186
aa(lp459
S'7a'
p460
aS'11c'
p461
aS'f'
p462
aS'7c'
p463
aS'7c'
p464
aS'10c'
p465
aS'f'
p466
aS'9a'
p467
aasg74
S'male'
p468
sg77
I00
sg78
g454
sg79
S'(He is absent today.)\n\nSession:1\t2\x0e\t\t3\t4\tRECESS\t\t5\t\t6\t7\t8\t\nStatus :8B \tlibrary \t7A \t7C \tSTAFF ROOM\tlibrary \t8B \t11C \t11C \t'
p469
sg81
(lp470
S'10'
p471
aS'11'
p472
aS'7'
p473
aS'8'
p474
aS'9'
p475
asg87
S'staff room'
p476
sg89
g99
sg90
S'library'
p477
sg92
g413
sg93
(lp478
g95
ag173
ag407
ag408
asg174
(lp479
S'economics'
p480
aS'hindi'
p481
aS'social science'
p482
asg177
(dp483
sbag10
aI0
aag324
asg174
(lp484
S' maths'
p485
aS'physics'
p486
asg177
(dp487
sbag179
ag100
asS'pres_teachers'
p488
(lp489
g179
ag4
ag100
asS'abs_teachers'
p490
(lp491
g96
ag253
ag329
asS'custom_proxies'
p492
(lp493
sS'removed_proxies'
p494
(lp495
sS's_proxies'
p496
(lp497
g95
a(lp498
g100
ag96
ag10
aI0
aag252
a(lp499
g179
ag329
ag376
aI1
aag328
ag173
a(lp500
g100
ag253
ag303
aI5
aa(lp501
g100
ag329
ag379
aI5
aag407
a(lp502
g179
ag253
ag304
aI6
aa(lp503
g179
ag329
ag380
aI6
aag408
a(lp504
g179
ag253
ag11
aI7
aa(lp505
g4
ag96
ag186
aI7
aag324
asS'gen_proxies'
p506
(lp507
g95
ag252
ag328
ag173
ag407
ag408
ag324
asS'clamoni'
p508
(dp509
g379
(lp510
I5
asg457
(lp511
I3
asg456
(lp512
I2
asg183
(lp513
I2
asg301
(lp514
I3
asg303
(lp515
I5
asg304
(lp516
I6
asg378
(lp517
I3
asg380
(lp518
I6
asg376
(lp519
I1
asg377
(lp520
I2
assS'teachers'
p521
(lp522
g96
ag329
ag4
ag253
ag179
ag100
asS'comp_proxies'
p523
(lp524
g95
ag252
ag328
ag173
ag407
ag408
ag324
asg93
(lp525
g95
ag252
ag328
ag173
ag407
ag408
ag324
asb.