(i__main__
Stats
p0
(dp1
S'proxy_teachers'
p2
(lp3
(i__main__
Teacher
p4
(dp5
S'status'
p6
S'He is most probably in class 7B.'
p7
sS'assigned'
p8
(dp9
I0
S'8b'
p10
sI1
I00
sI2
S'11c'
p11
sI3
I00
sI4
I00
sI5
I00
sI6
S'10b'
p12
sI7
I00
ssS'first_name'
p13
S'Narendra'
p14
sS'last_name'
p15
S'Gandhi'
p16
sS'sched'
p17
S"Note: 'f' stands for free session and 'r' stands for recess.\n\nSession  : 1\t2\t3\t4\tr\t5\t6\t7\t8\t\n________________________________________________________________________________\n\nMonday   : 5A\tf\t6A\t7B\tr\t8A\t7A\t6A\tf\t\nTuesday  : 5A\t6A\tf\tf\tr\t5A\t6A\tf\t7B\t\nWednesday: 5A\t7A\t6A\tf\tr\t7B\t5B\tf\t6A\t\nThursday : f\t7B\tf\t3C\tr\t6A\t5A\tf\t7A   <- today\nFriday   : 5A\tf\t7C\t6A\tr\tf\t5A\tf\tf\t\nSaturday : f\t7B\t5A\tf\tr\t7A\t8A\tf\t6A"
p18
sS'name'
p19
S'Narendra Gandhi'
p20
sS'schedule'
p21
(lp22
(lp23
S'5a'
p24
aS'f'
p25
aS'6a'
p26
aS'7b'
p27
aS'8a'
p28
aS'7a'
p29
aS'6a'
p30
aS'f'
p31
aa(lp32
S'5a'
p33
aS'6a'
p34
aS'f'
p35
aS'f'
p36
aS'5a'
p37
aS'6a'
p38
aS'f'
p39
aS'7b'
p40
aa(lp41
S'5a'
p42
aS'7a'
p43
aS'6a'
p44
aS'f'
p45
aS'7b'
p46
aS'5b'
p47
aS'f'
p48
aS'6a'
p49
aa(lp50
g10
aS'7b'
p51
ag11
aS'3c'
p52
aS'6a'
p53
aS'5a'
p54
ag12
aS'7a'
p55
aa(lp56
S'5a'
p57
aS'f'
p58
aS'7c'
p59
aS'6a'
p60
aS'f'
p61
aS'5a'
p62
aS'f'
p63
aS'f'
p64
aa(lp65
S'f'
p66
aS'7b'
p67
aS'5a'
p68
aS'f'
p69
aS'7a'
p70
aS'8a'
p71
aS'f'
p72
aS'6a'
p73
aasS'gender'
p74
S'male'
p75
sS'pres_pos'
p76
g51
sS'is_present'
p77
I01
sS'today_sched'
p78
g50
sS'tod_sched'
p79
S'Session:1\t\t2\x0e\t3\t\t4\tRECESS\t5\t6\t7\t\t8\t\nStatus :8B(proxy) \t7B \t11C(proxy) \t3C \tGROUND\t6A \t5A \t10B(proxy) \t7A \t'
p80
sS'classes'
p81
(lp82
S'5'
p83
aS'6'
p84
aS'7'
p85
aS'8'
p86
asS'recess_pos'
p87
S'ground'
p88
sS'saved_assignments'
p89
g9
sS'free_pos'
p90
S'library'
p91
sS'title_name'
p92
g14
sS'proxies'
p93
(lp94
(lp95
g4
a(i__main__
Teacher
p96
(dp97
g6
S'He is absent today.'
p98
sg8
(dp99
I0
g4
sI1
I00
sI2
g4
sI3
I00
sI4
(i__main__
Teacher
p100
(dp101
g6
S'She is most probably in class 11S.'
p102
sg8
(dp103
I0
I00
sI1
I00
sI2
I00
sI3
I00
sI4
S'7c'
p104
sI5
I00
sI6
I00
sI7
I00
ssg13
S'Sonia'
p105
sg15
S'Singh'
p106
sg17
S"Note: 'f' stands for free session and 'r' stands for recess.\n\nSession  : 1\t2\t3\t4\tr\t5\t6\t7\t8\t\n________________________________________________________________________________\n\nMonday   : 10A\t10A\t11S\tf\tr\t12S\t9C\t10C\tf\t\nTuesday  : 10A\t12S\t12S\t11S\tr\tf\tf\t10B\t11S\t\nWednesday: 11S\t11S\t10A\t10B\tr\tf\t9B\tf\tf\t\nThursday : 10C\t11S\t12S\tf\tr\tf\t10A\t12S\t12S   <- today\nFriday   : f\t11S\t9A\t12S\tr\t11S\tf\t12S\t12S\t\nSaturday : f\tf\t11S\t11S\tr\t12S\t12S\tf\tf"
p107
sg19
S'Sonia Singh'
p108
sg21
(lp109
(lp110
S'10a'
p111
aS'10a'
p112
aS'11s'
p113
aS'f'
p114
aS'12s'
p115
aS'9c'
p116
aS'10c'
p117
aS'f'
p118
aa(lp119
S'10a'
p120
aS'12s'
p121
aS'12s'
p122
aS'11s'
p123
aS'f'
p124
aS'f'
p125
aS'10b'
p126
aS'11s'
p127
aa(lp128
S'11s'
p129
aS'11s'
p130
aS'10a'
p131
aS'10b'
p132
aS'f'
p133
aS'9b'
p134
aS'f'
p135
aS'f'
p136
aa(lp137
S'10c'
p138
aS'11s'
p139
aS'12s'
p140
aS'f'
p141
ag104
aS'10a'
p142
aS'12s'
p143
aS'12s'
p144
aa(lp145
S'f'
p146
aS'11s'
p147
aS'9a'
p148
aS'12s'
p149
aS'11s'
p150
aS'f'
p151
aS'12s'
p152
aS'12s'
p153
aa(lp154
S'f'
p155
aS'f'
p156
aS'11s'
p157
aS'11s'
p158
aS'12s'
p159
aS'12s'
p160
aS'f'
p161
aS'f'
p162
aasg74
S'female'
p163
sg76
g139
sg77
I01
sg78
g137
sg79
S"Note:'*' denotes that Sonia is free in, or somewhere around chemistry lab.\n\nSession:1\t2\x0e\t3\t4\t\tRECESS\t\t5\t\t6\t7\t8\t\nStatus :10C \t11S \t12S \tchemistry lab* \tCHEMISTRY LAB\t7C(proxy) \t10A \t12S \t12S \t"
p164
sg81
(lp165
S'10'
p166
aS'11'
p167
aS'12'
p168
aS'9'
p169
asg87
S'chemistry lab'
p170
sg89
g103
sg90
S'chemistry lab'
p171
sg92
g108
sg93
(lp172
(lp173
g100
ag96
ag104
aI4
aasS'subjects'
p174
(lp175
S'chemistry'
p176
asS'history'
p177
(dp178
sbsI5
I00
sI6
I00
sI7
(i__main__
Teacher
p179
(dp180
g6
S'He is most probably in class 10A.'
p181
sg8
(dp182
I0
I00
sI1
I00
sI2
I00
sI3
I00
sI4
I00
sI5
I00
sI6
I00
sI7
S'11c'
p183
ssg13
S'Albert'
p184
sg15
S'Newton'
p185
sg17
S"Note: 'f' stands for free session and 'r' stands for recess.\n\nSession  : 1\t2\t3\t4\tr\t5\t6\t7\t8\t\n________________________________________________________________________________\n\nMonday   : 9A\t9B\t10A\t10B\tr\tf\t11S\t12S\tf\t\nTuesday  : 10B\t10A\tf\tf\tr\t9A\t12S\t12S\tf\t\nWednesday: 10B\t12S\t10B\tf\tr\tf\t9A\tf\t10A\t\nThursday : 11S\t10A\t10B\t11S\tr\t12S\t9B\tf\tf   <- today\nFriday   : f\t9A\t9B\t10A\tr\t10B\t11S\t10A\tf\t\nSaturday : f\t12S\t10A\t10B\tr\t9A\t9B\t12S\tf"
p186
sg19
S'Albert Newton'
p187
sg21
(lp188
(lp189
S'9a'
p190
aS'9b'
p191
aS'10a'
p192
aS'10b'
p193
aS'f'
p194
aS'11s'
p195
aS'12s'
p196
aS'f'
p197
aa(lp198
S'10b'
p199
aS'10a'
p200
aS'f'
p201
aS'f'
p202
aS'9a'
p203
aS'12s'
p204
aS'12s'
p205
aS'f'
p206
aa(lp207
S'10b'
p208
aS'12s'
p209
aS'10b'
p210
aS'f'
p211
aS'f'
p212
aS'9a'
p213
aS'f'
p214
aS'10a'
p215
aa(lp216
S'11s'
p217
aS'10a'
p218
aS'10b'
p219
aS'11s'
p220
aS'12s'
p221
aS'9b'
p222
aS'f'
p223
ag183
aa(lp224
S'f'
p225
aS'9a'
p226
aS'9b'
p227
aS'10a'
p228
aS'10b'
p229
aS'11s'
p230
aS'10a'
p231
aS'f'
p232
aa(lp233
S'f'
p234
aS'12s'
p235
aS'10a'
p236
aS'10b'
p237
aS'9a'
p238
aS'9b'
p239
aS'12s'
p240
aS'f'
p241
aasg74
S'male'
p242
sg76
g218
sg77
I01
sg78
g216
sg79
S"Note:'*' denotes that Albert is free in, or somewhere around physics lab.\n\nSession:1\t2\x0e\t3\t4\tRECESS\t5\t6\t7\t\t8\t\t\nStatus :11S \t10A \t10B \t11S \tGROUND\t12S \t9B \tphysics lab* \t11C(proxy) \t"
p243
sg81
(lp244
S'10'
p245
aS'11'
p246
aS'12'
p247
aS'9'
p248
asg87
S'ground'
p249
sg89
g182
sg90
S'physics lab'
p250
sg92
g184
sg93
(lp251
(lp252
g179
ag96
ag183
aI7
aasg174
(lp253
S' maths'
p254
aS'physics'
p255
asg177
(dp256
sbssg13
S'Mulayam'
p257
sg15
S'Modi'
p258
sg17
S"Note: 'f' stands for free session and 'r' stands for recess.\n\nSession  : 1\t2\t3\t4\tr\t5\t6\t7\t8\t\n________________________________________________________________________________\n\nMonday   : 8B\tf\t7C\t11C\tr\t11C\t7C\t7A\tf\t\nTuesday  : 8B\t11C\t9A\tf\tr\t8B\t7C\t7A\tf\t\nWednesday: 8B\t7C\tf\t10C\tr\tf\t11C\t7A\tf\t\nThursday : 8B\t8B\t11C\tf\tr\t7C\t7A\tf\t11C   <- today\nFriday   : 8B\tf\t7A\t7C\tr\tf\t8B\t11C\t11C\t\nSaturday : 7A\t11C\tf\t7C\tr\t7C\t10C\tf\t9A"
p259
sg19
S'Mulayam Modi'
p260
sg21
(lp261
(lp262
S'8b'
p263
aS'f'
p264
aS'7c'
p265
aS'11c'
p266
aS'11c'
p267
aS'7c'
p268
aS'7a'
p269
aS'f'
p270
aa(lp271
S'8b'
p272
aS'11c'
p273
aS'9a'
p274
aS'f'
p275
aS'8b'
p276
aS'7c'
p277
aS'7a'
p278
aS'f'
p279
aa(lp280
S'8b'
p281
aS'7c'
p282
aS'f'
p283
aS'10c'
p284
aS'f'
p285
aS'11c'
p286
aS'7a'
p287
aS'f'
p288
aa(lp289
g10
aS'8b'
p290
ag11
aS'f'
p291
ag104
aS'7a'
p292
aS'f'
p293
ag183
aa(lp294
S'8b'
p295
aS'f'
p296
aS'7a'
p297
aS'7c'
p298
aS'f'
p299
aS'8b'
p300
aS'11c'
p301
aS'11c'
p302
aa(lp303
S'7a'
p304
aS'11c'
p305
aS'f'
p306
aS'7c'
p307
aS'7c'
p308
aS'10c'
p309
aS'f'
p310
aS'9a'
p311
aasg74
S'male'
p312
sg77
I00
sg78
g289
sg79
S'(He is absent today.)\n\nSession:1\t2\x0e\t3\t4\t\tRECESS\t\t5\t6\t7\t\t8\t\nStatus :8B \t8B \t11C \tlibrary \tSTAFF ROOM\t7C \t7A \tlibrary \t11C \t'
p313
sg81
(lp314
S'10'
p315
aS'11'
p316
aS'7'
p317
aS'8'
p318
aS'9'
p319
asg87
S'staff room'
p320
sg89
g99
sg90
S'library'
p321
sg92
g257
sg93
(lp322
g95
a(lp323
g4
ag96
ag11
aI2
aag173
ag252
asg174
(lp324
S'economics'
p325
aS'hindi'
p326
aS'social science'
p327
asg177
(dp328
sbag10
aI0
aag323
a(lp329
g4
a(i__main__
Teacher
p330
(dp331
g6
S'She is absent today.'
p332
sg8
(dp333
I0
(i__main__
Teacher
p334
(dp335
g6
S'He is most probably in class 3B.'
p336
sg8
(dp337
I0
S'12s'
p338
sI1
I00
sI2
I00
sI3
I00
sI4
S'9a'
p339
sI5
I00
sI6
I00
sI7
I00
ssg13
S'Rahul'
p340
sg15
S'Yadav'
p341
sg17
S"Note: 'f' stands for free session and 'r' stands for recess.\n\nSession  : 1\t2\t3\t4\tr\t5\t6\t7\t8\t\n________________________________________________________________________________\n\nMonday   : f\t6B\t4A\t5C\tr\t1A\t2A\t3A\tf\t\nTuesday  : f\tf\t2C\t1A\tr\t3A\t5A\t1B\t4C\t\nWednesday: f\t1C\t4B\t4A\tr\t4C\t7B\tf\t3C\t\nThursday : f\t3B\t2A\t2B\tr\tf\t6A\t5C\t7C   <- today\nFriday   : f\t5A\t7B\t2C\tr\t3C\t6C\t5B\tf\t\nSaturday : f\t1C\t4B\t2B\tr\tf\t5B\t3B\t7A"
p342
sg19
S'Rahul Yadav'
p343
sg21
(lp344
(lp345
S'f'
p346
aS'6b'
p347
aS'4a'
p348
aS'5c'
p349
aS'1a'
p350
aS'2a'
p351
aS'3a'
p352
aS'f'
p353
aa(lp354
S'f'
p355
aS'f'
p356
aS'2c'
p357
aS'1a'
p358
aS'3a'
p359
aS'5a'
p360
aS'1b'
p361
aS'4c'
p362
aa(lp363
S'f'
p364
aS'1c'
p365
aS'4b'
p366
aS'4a'
p367
aS'4c'
p368
aS'7b'
p369
aS'f'
p370
aS'3c'
p371
aa(lp372
g338
aS'3b'
p373
aS'2a'
p374
aS'2b'
p375
ag339
aS'6a'
p376
aS'5c'
p377
aS'7c'
p378
aa(lp379
S'f'
p380
aS'5a'
p381
aS'7b'
p382
aS'2c'
p383
aS'3c'
p384
aS'6c'
p385
aS'5b'
p386
aS'f'
p387
aa(lp388
S'f'
p389
aS'1c'
p390
aS'4b'
p391
aS'2b'
p392
aS'f'
p393
aS'5b'
p394
aS'3b'
p395
aS'7a'
p396
aasg74
S'male'
p397
sg76
g373
sg77
I01
sg78
g372
sg79
S'Session:1\t\t2\x0e\t3\t4\tRECESS\t\t5\t\t6\t7\t8\t\nStatus :12S(proxy) \t3B \t2A \t2B \tSTAFF ROOM\t9A(proxy) \t6A \t5C \t7C \t'
p398
sg81
(lp399
S'1'
p400
aS'2'
p401
aS'3'
p402
aS'4'
p403
aS'5'
p404
aS'6'
p405
asg87
S'staff room'
p406
sg89
g337
sg90
S'music room'
p407
sg92
g340
sg93
(lp408
(lp409
g334
ag330
ag338
aI0
aa(lp410
g334
ag330
ag339
aI4
aasg174
(lp411
S'Civics'
p412
aS'Music'
p413
asg177
(dp414
sbsI1
I00
sI2
I00
sI3
I00
sI4
g334
sI5
I00
sI6
g4
sI7
I00
ssg13
S'Sonia'
p415
sg15
S'Yadav'
p416
sg17
S"Note: 'f' stands for free session and 'r' stands for recess.\n\nSession  : 1\t2\t3\t4\tr\t5\t6\t7\t8\t\n________________________________________________________________________________\n\nMonday   : 10B\t10B\t12S\t11S\tr\t11S\tf\t10A\t10A\t\nTuesday  : f\t11S\tf\t12S\tr\t12S\tf\t9B\t9B\t\nWednesday: 9C\t9C\t12S\tf\tr\t9B\t11S\tf\tf\t\nThursday : 12S\t12S\t11S\tf\tr\t9A\t9A\t10B\t11S   <- today\nFriday   : f\t10C\t10C\t9A\tr\tf\t12S\t11S\t11S\t\nSaturday : f\t11S\t12S\t12S\tr\t9C\tf\t10C\t10A"
p417
sg19
S'Sonia Yadav'
p418
sg21
(lp419
(lp420
S'10b'
p421
aS'10b'
p422
aS'12s'
p423
aS'11s'
p424
aS'11s'
p425
aS'f'
p426
aS'10a'
p427
aS'10a'
p428
aa(lp429
S'f'
p430
aS'11s'
p431
aS'f'
p432
aS'12s'
p433
aS'12s'
p434
aS'f'
p435
aS'9b'
p436
aS'9b'
p437
aa(lp438
S'9c'
p439
aS'9c'
p440
aS'12s'
p441
aS'f'
p442
aS'9b'
p443
aS'11s'
p444
aS'f'
p445
aS'f'
p446
aa(lp447
g338
aS'12s'
p448
aS'11s'
p449
aS'f'
p450
ag339
aS'9a'
p451
ag12
aS'11s'
p452
aa(lp453
S'f'
p454
aS'10c'
p455
aS'10c'
p456
aS'9a'
p457
aS'f'
p458
aS'12s'
p459
aS'11s'
p460
aS'11s'
p461
aa(lp462
S'f'
p463
aS'11s'
p464
aS'12s'
p465
aS'12s'
p466
aS'9c'
p467
aS'f'
p468
aS'10c'
p469
aS'10a'
p470
aasg74
S'female'
p471
sg77
I00
sg78
g447
sg79
S'(She is absent today.)\n\nSession:1\t2\x0e\t3\t4\t\tRECESS\t5\t6\t7\t8\t\nStatus :12S \t12S \t11S \tbiology lab \tGROUND\t9A \t9A \t10B \t11S \t'
p472
sg81
(lp473
S'10'
p474
aS'11'
p475
aS'12'
p476
aS'9'
p477
asg87
S'ground'
p478
sg89
g333
sg90
S'biology lab'
p479
sg92
g418
sg93
(lp480
g409
ag410
ag329
asg174
(lp481
S'biology'
p482
asg177
(dp483
sbag12
aI6
aasg174
(lp484
S'Gujarati'
p485
aS'Spanish'
p486
asg177
(dp487
sbag334
ag100
ag179
asS'pres_teachers'
p488
(lp489
g100
ag4
ag179
ag334
asS'abs_teachers'
p490
(lp491
g96
ag330
asS'custom_proxies'
p492
(lp493
sS'removed_proxies'
p494
(lp495
sS's_proxies'
p496
(lp497
g95
a(lp498
g334
ag96
ag10
aI0
aa(lp499
g4
ag330
ag338
aI0
aag409
ag323
a(lp500
g4
ag330
ag449
aI2
aag173
a(lp501
g334
ag96
ag104
aI4
aag410
a(lp502
g100
ag330
ag339
aI4
aag329
a(lp503
g179
ag330
ag12
aI6
aag252
a(lp504
g179
ag330
ag452
aI7
aasS'gen_proxies'
p505
(lp506
g95
ag409
ag323
ag173
ag410
ag329
ag252
asS'clamoni'
p507
(dp508
g292
(lp509
I5
asg10
(lp510
I1
asg339
(lp511
I5
asg338
(lp512
I1
asg449
(lp513
I2
aI7
assS'teachers'
p514
(lp515
g330
ag179
ag4
ag100
ag334
ag96
asS'comp_proxies'
p516
(lp517
g95
ag409
ag323
ag173
ag410
ag329
ag252
asg93
(lp518
g95
ag409
ag323
ag173
ag410
ag329
ag252
asb.