(i__main__
Stats
p0
(dp1
S'proxy_teachers'
p2
(lp3
(i__main__
Teacher
p4
(dp5
S'status'
p6
S'He is most probably in class 3C.'
p7
sS'assigned'
p8
(dp9
I0
I00
sI1
I00
sI2
I00
sI3
I00
sI4
I00
sI5
I00
sI6
I00
sI7
S'11s'
p10
ssS'first_name'
p11
S'Rahul'
p12
sS'last_name'
p13
S'Yadav'
p14
sS'sched'
p15
S"Note: 'f' stands for free session and 'r' stands for recess.\n\nSession  : 1\t2\t3\t4\tr\t5\t6\t7\t8\t\n________________________________________________________________________________\n\nMonday   : f\t6B\t4A\t5C\tr\t1A\t2A\t3A\tf\t\nTuesday  : f\tf\t2C\t1A\tr\t3A\t5A\t1B\t4C\t\nWednesday: f\t1C\t4B\t4A\tr\t4C\t7B\tf\t3C\t\nThursday : f\t3B\t2A\t2B\tr\tf\t6A\t5C\t7C\t\nFriday   : f\t5A\t7B\t2C\tr\t3C\t6C\t5B\tf\t\nSaturday : f\t1C\t4B\t2B\tr\tf\t5B\t3B\t7A"
p16
sS'name'
p17
S'Rahul Yadav'
p18
sS'schedule'
p19
(lp20
(lp21
S'f'
p22
aS'6b'
p23
aS'4a'
p24
aS'5c'
p25
aS'1a'
p26
aS'2a'
p27
aS'3a'
p28
aS'f'
p29
aa(lp30
S'f'
p31
aS'f'
p32
aS'2c'
p33
aS'1a'
p34
aS'3a'
p35
aS'5a'
p36
aS'1b'
p37
aS'4c'
p38
aa(lp39
S'f'
p40
aS'1c'
p41
aS'4b'
p42
aS'4a'
p43
aS'4c'
p44
aS'7b'
p45
aS'f'
p46
aS'3c'
p47
aa(lp48
S'f'
p49
aS'3b'
p50
aS'2a'
p51
aS'2b'
p52
aS'f'
p53
aS'6a'
p54
aS'5c'
p55
aS'7c'
p56
aa(lp57
S'f'
p58
aS'5a'
p59
aS'7b'
p60
aS'2c'
p61
aS'3c'
p62
aS'6c'
p63
aS'5b'
p64
aS'f'
p65
aa(lp66
S'f'
p67
aS'1c'
p68
aS'4b'
p69
aS'2b'
p70
aS'f'
p71
aS'5b'
p72
aS'3b'
p73
aS'7a'
p74
aasS'gender'
p75
S'male'
p76
sS'is_present'
p77
I01
sS'today_sched'
p78
(lp79
g58
ag59
ag60
ag61
ag62
ag63
ag64
ag10
asS'tod_sched'
p80
S"Note:'*' denotes that Rahul is free in, or somewhere around music room.\n\nSession : 1\t\t2\t3\t4\tRECESS\t\t5\x0e\t6\t7\t8\t\t\nPosition: music room* \t5A \t7B \t2C \tSTAFF ROOM\t3C \t6C \t5B \t11S(proxy) \t"
p81
sS'classes'
p82
(lp83
S'1'
p84
aS'2'
p85
aS'3'
p86
aS'4'
p87
aS'5'
p88
aS'6'
p89
asS'recess_pos'
p90
S'staff room'
p91
sS'pres_pos'
p92
g62
sS'free_pos'
p93
S'music room'
p94
sS'title_name'
p95
g12
sS'proxies'
p96
(lp97
(lp98
g4
a(i__main__
Teacher
p99
(dp100
g6
S'She is absent today.'
p101
sg8
(dp102
I0
I00
sI1
(i__main__
Teacher
p103
(dp104
g6
S'He is most probably in class 11S.'
p105
sg8
(dp106
I0
I00
sI1
S'10c'
p107
sI2
I00
sI3
I00
sI4
S'11s'
p108
sI5
I00
sI6
I00
sI7
I00
ssg11
S'Mulayam'
p109
sg13
S'Modi'
p110
sg15
S"Note: 'f' stands for free session and 'r' stands for recess.\n\nSession  : 1\t2\t3\t4\tr\t5\t6\t7\t8\t\n________________________________________________________________________________\n\nMonday   : 8B\tf\t7C\t11C\tr\t11C\t7C\t7A\tf\t\nTuesday  : 8B\t11C\t9A\tf\tr\t8B\t7C\t7A\tf\t\nWednesday: 8B\t7C\tf\t10C\tr\tf\t11C\t7A\tf\t\nThursday : 8B\t8B\t11C\tf\tr\t7C\t7A\tf\t11C\t\nFriday   : 8B\tf\t7A\t7C\tr\tf\t8B\t11C\t11C\t\nSaturday : 7A\t11C\tf\t7C\tr\t7C\t10C\tf\t9A"
p111
sg17
S'Mulayam Modi'
p112
sg19
(lp113
(lp114
S'8b'
p115
aS'f'
p116
aS'7c'
p117
aS'11c'
p118
aS'11c'
p119
aS'7c'
p120
aS'7a'
p121
aS'f'
p122
aa(lp123
S'8b'
p124
aS'11c'
p125
aS'9a'
p126
aS'f'
p127
aS'8b'
p128
aS'7c'
p129
aS'7a'
p130
aS'f'
p131
aa(lp132
S'8b'
p133
aS'7c'
p134
aS'f'
p135
aS'10c'
p136
aS'f'
p137
aS'11c'
p138
aS'7a'
p139
aS'f'
p140
aa(lp141
S'8b'
p142
aS'8b'
p143
aS'11c'
p144
aS'f'
p145
aS'7c'
p146
aS'7a'
p147
aS'f'
p148
aS'11c'
p149
aa(lp150
S'8b'
p151
aS'f'
p152
aS'7a'
p153
aS'7c'
p154
aS'f'
p155
aS'8b'
p156
aS'11c'
p157
aS'11c'
p158
aa(lp159
S'7a'
p160
aS'11c'
p161
aS'f'
p162
aS'7c'
p163
aS'7c'
p164
aS'10c'
p165
aS'f'
p166
aS'9a'
p167
aasg75
S'male'
p168
sg77
I01
sg78
(lp169
g151
ag107
ag153
ag154
ag108
ag156
ag157
ag158
asg80
S'Session : 1\t2\t\t3\t4\tRECESS\t\t5\x0e\t\t6\t7\t8\t\nPosition: 8B \t10C(proxy) \t7A \t7C \tSTAFF ROOM\t11S(proxy) \t8B \t11C \t11C \t'
p170
sg82
(lp171
S'10'
p172
aS'11'
p173
aS'7'
p174
aS'8'
p175
aS'9'
p176
asg90
S'staff room'
p177
sg92
g108
sg93
S'library'
p178
sg95
g109
sg96
(lp179
(lp180
g103
ag99
ag107
aI1
aa(lp181
g103
a(i__main__
Teacher
p182
(dp183
g6
S'She is absent today.'
p184
sg8
(dp185
I0
I00
sI1
(i__main__
Teacher
p186
(dp187
g6
S'He is most probably near library.'
p188
sg8
(dp189
I0
I00
sI1
S'11s'
p190
sI2
I00
sI3
I00
sI4
I00
sI5
I00
sI6
S'11s'
p191
sI7
S'12s'
p192
ssg11
S'Narendra'
p193
sg13
S'Gandhi'
p194
sg15
S"Note: 'f' stands for free session and 'r' stands for recess.\n\nSession  : 1\t2\t3\t4\tr\t5\t6\t7\t8\t\n________________________________________________________________________________\n\nMonday   : 5A\tf\t6A\t7B\tr\t8A\t7A\t6A\tf\t\nTuesday  : 5A\t6A\tf\tf\tr\t5A\t6A\tf\t7B\t\nWednesday: 5A\t7A\t6A\tf\tr\t7B\t5B\tf\t6A\t\nThursday : f\t7B\tf\t3C\tr\t6A\t5A\tf\t7A\t\nFriday   : 5A\tf\t7C\t6A\tr\tf\t5A\tf\tf\t\nSaturday : f\t7B\t5A\tf\tr\t7A\t8A\tf\t6A"
p195
sg17
S'Narendra Gandhi'
p196
sg19
(lp197
(lp198
S'5a'
p199
aS'f'
p200
aS'6a'
p201
aS'7b'
p202
aS'8a'
p203
aS'7a'
p204
aS'6a'
p205
aS'f'
p206
aa(lp207
S'5a'
p208
aS'6a'
p209
aS'f'
p210
aS'f'
p211
aS'5a'
p212
aS'6a'
p213
aS'f'
p214
aS'7b'
p215
aa(lp216
S'5a'
p217
aS'7a'
p218
aS'6a'
p219
aS'f'
p220
aS'7b'
p221
aS'5b'
p222
aS'f'
p223
aS'6a'
p224
aa(lp225
S'f'
p226
aS'7b'
p227
aS'f'
p228
aS'3c'
p229
aS'6a'
p230
aS'5a'
p231
aS'f'
p232
aS'7a'
p233
aa(lp234
S'5a'
p235
aS'f'
p236
aS'7c'
p237
aS'6a'
p238
aS'f'
p239
aS'5a'
p240
aS'f'
p241
aS'f'
p242
aa(lp243
S'f'
p244
aS'7b'
p245
aS'5a'
p246
aS'f'
p247
aS'7a'
p248
aS'8a'
p249
aS'f'
p250
aS'6a'
p251
aasg75
S'male'
p252
sg77
I01
sg78
(lp253
g235
ag190
ag237
ag238
ag239
ag240
ag191
ag192
asg80
S"Note:'*' denotes that Narendra is free in, or somewhere around library.\n\nSession : 1\t2\t\t3\t4\tRECESS\t5\x0e\t\t6\t7\t\t8\t\t\nPosition: 5A \t11S(proxy) \t7C \t6A \tGROUND\tlibrary* \t5A \t11S(proxy) \t12S(proxy) \t"
p254
sg82
(lp255
S'5'
p256
aS'6'
p257
aS'7'
p258
aS'8'
p259
asg90
S'ground'
p260
sg92
g239
sg93
S'library'
p261
sg95
g193
sg96
(lp262
(lp263
g186
ag99
ag191
aI6
aa(lp264
g186
ag182
ag190
aI1
aa(lp265
g186
ag182
ag192
aI7
aasS'subjects'
p266
(lp267
S'Gujarati'
p268
aS'Spanish'
p269
asS'history'
p270
(dp271
sbsI2
I00
sI3
I00
sI4
g103
sI5
I00
sI6
I00
sI7
g186
ssg11
S'Sonia'
p272
sg13
S'Singh'
p273
sg15
S"Note: 'f' stands for free session and 'r' stands for recess.\n\nSession  : 1\t2\t3\t4\tr\t5\t6\t7\t8\t\n________________________________________________________________________________\n\nMonday   : 10A\t10A\t11S\tf\tr\t12S\t9C\t10C\tf\t\nTuesday  : 10A\t12S\t12S\t11S\tr\tf\tf\t10B\t11S\t\nWednesday: 11S\t11S\t10A\t10B\tr\tf\t9B\tf\tf\t\nThursday : 10C\t11S\t12S\tf\tr\tf\t10A\t12S\t12S\t\nFriday   : f\t11S\t9A\t12S\tr\t11S\tf\t12S\t12S\t\nSaturday : f\tf\t11S\t11S\tr\t12S\t12S\tf\tf"
p274
sg17
S'Sonia Singh'
p275
sg19
(lp276
(lp277
S'10a'
p278
aS'10a'
p279
aS'11s'
p280
aS'f'
p281
aS'12s'
p282
aS'9c'
p283
aS'10c'
p284
aS'f'
p285
aa(lp286
S'10a'
p287
aS'12s'
p288
aS'12s'
p289
aS'11s'
p290
aS'f'
p291
aS'f'
p292
aS'10b'
p293
aS'11s'
p294
aa(lp295
S'11s'
p296
aS'11s'
p297
aS'10a'
p298
aS'10b'
p299
aS'f'
p300
aS'9b'
p301
aS'f'
p302
aS'f'
p303
aa(lp304
S'10c'
p305
aS'11s'
p306
aS'12s'
p307
aS'f'
p308
aS'f'
p309
aS'10a'
p310
aS'12s'
p311
aS'12s'
p312
aa(lp313
S'f'
p314
ag190
aS'9a'
p315
aS'12s'
p316
ag108
aS'f'
p317
aS'12s'
p318
ag192
aa(lp319
S'f'
p320
aS'f'
p321
aS'11s'
p322
aS'11s'
p323
aS'12s'
p324
aS'12s'
p325
aS'f'
p326
aS'f'
p327
aasg75
S'female'
p328
sg77
I00
sg78
g313
sg80
S'Session : 1\t\t2\t3\t4\tRECESS\t\t5\x0e\t6\t\t7\t8\t\nPosition: chemistry lab \t11S \t9A \t12S \tCHEMISTRY LAB\t11S \tchemistry lab \t12S \t12S \t'
p329
sg82
(lp330
S'10'
p331
aS'11'
p332
aS'12'
p333
aS'9'
p334
asg90
S'chemistry lab'
p335
sg93
S'chemistry lab'
p336
sg95
g275
sg96
(lp337
g181
ag264
ag265
asg266
(lp338
S'chemistry'
p339
asg270
(dp340
sbag108
aI4
aasg266
(lp341
S'economics'
p342
aS'hindi'
p343
aS'social science'
p344
asg270
(dp345
sbsI2
I00
sI3
I00
sI4
I00
sI5
I00
sI6
g186
sI7
g4
ssg11
S'Sonia'
p346
sg13
S'Yadav'
p347
sg15
S"Note: 'f' stands for free session and 'r' stands for recess.\n\nSession  : 1\t2\t3\t4\tr\t5\t6\t7\t8\t\n________________________________________________________________________________\n\nMonday   : 10B\t10B\t12S\t11S\tr\t11S\tf\t10A\t10A\t\nTuesday  : f\t11S\tf\t12S\tr\t12S\tf\t9B\t9B\t\nWednesday: 9C\t9C\t12S\tf\tr\t9B\t11S\tf\tf\t\nThursday : 12S\t12S\t11S\tf\tr\t9A\t9A\t10B\t11S\t\nFriday   : f\t10C\t10C\t9A\tr\tf\t12S\t11S\t11S\t\nSaturday : f\t11S\t12S\t12S\tr\t9C\tf\t10C\t10A"
p348
sg17
S'Sonia Yadav'
p349
sg19
(lp350
(lp351
S'10b'
p352
aS'10b'
p353
aS'12s'
p354
aS'11s'
p355
aS'11s'
p356
aS'f'
p357
aS'10a'
p358
aS'10a'
p359
aa(lp360
S'f'
p361
aS'11s'
p362
aS'f'
p363
aS'12s'
p364
aS'12s'
p365
aS'f'
p366
aS'9b'
p367
aS'9b'
p368
aa(lp369
S'9c'
p370
aS'9c'
p371
aS'12s'
p372
aS'f'
p373
aS'9b'
p374
aS'11s'
p375
aS'f'
p376
aS'f'
p377
aa(lp378
S'12s'
p379
aS'12s'
p380
aS'11s'
p381
aS'f'
p382
aS'9a'
p383
aS'9a'
p384
aS'10b'
p385
aS'11s'
p386
aa(lp387
S'f'
p388
ag107
aS'10c'
p389
aS'9a'
p390
aS'f'
p391
aS'12s'
p392
ag191
ag10
aa(lp393
S'f'
p394
aS'11s'
p395
aS'12s'
p396
aS'12s'
p397
aS'9c'
p398
aS'f'
p399
aS'10c'
p400
aS'10a'
p401
aasg75
S'female'
p402
sg77
I00
sg78
g387
sg80
S'Session : 1\t\t2\t3\t4\tRECESS\t5\x0e\t\t6\t7\t8\t\nPosition: biology lab \t10C \t10C \t9A \tGROUND\tbiology lab \t12S \t11S \t11S \t'
p403
sg82
(lp404
S'10'
p405
aS'11'
p406
aS'12'
p407
aS'9'
p408
asg90
S'ground'
p409
sg93
S'biology lab'
p410
sg95
g349
sg96
(lp411
g98
ag180
ag263
asg266
(lp412
S'biology'
p413
asg270
(dp414
sbag10
aI7
aasg266
(lp415
S'Civics'
p416
aS'Music'
p417
asg270
(dp418
sbag103
ag186
asS'pres_teachers'
p419
(lp420
g4
ag103
ag186
asS'abs_teachers'
p421
(lp422
g99
ag182
asS'custom_proxies'
p423
(lp424
sS'removed_proxies'
p425
(lp426
sS'gen_proxies'
p427
(lp428
g98
ag180
ag263
ag181
ag264
ag265
asS'clamoni'
p429
(dp430
g390
(lp431
I3
aI2
asg107
(lp432
I2
asg392
(lp433
I5
aI3
aI6
assS'teachers'
p434
(lp435
g103
ag4
ag186
ag182
ag99
asg96
(lp436
g180
ag264
ag181
ag263
ag98
ag265
asb.