(i__main__
Stats
p0
(dp1
S'proxy_teachers'
p2
(lp3
(i__main__
Teacher
p4
(dp5
S'status'
p6
S'She is most probably near chemistry lab.'
p7
sS'last_name'
p8
S'Singh'
p9
sS'sched'
p10
S"Note: 'f' stands for free session and 'r' stands for recess.\n\nSession  : 1\t2\t3\t4\tr\t5\t6\t7\t8\t\n________________________________________________________________________________\n\nMonday   : 10A\t10A\t11S\tf\tr\t12S\t9C\t10C\tf\t\nTuesday  : 10A\t12S\t12S\t11S\tr\tf\tf\t10B\t11S\t\nWednesday: 11S\t11S\t10A\t10B\tr\tf\t9B\tf\tf\t\nThursday : 10C\t11S\t12S\tf\tr\tf\t10A\t12S\t12S\t\n <- todayFriday   : f\t11S\t9A\t12S\tr\t11S\tf\t12S\t12S\t\nSaturday : f\tf\t11S\t11S\tr\t12S\t12S\tf\tf"
p11
sS'schedule'
p12
(lp13
(lp14
S'10a'
p15
aS'10a'
p16
aS'11s'
p17
aS'f'
p18
aS'12s'
p19
aS'9c'
p20
aS'10c'
p21
aS'f'
p22
aa(lp23
S'10a'
p24
aS'12s'
p25
aS'12s'
p26
aS'11s'
p27
aS'f'
p28
aS'f'
p29
aS'10b'
p30
aS'11s'
p31
aa(lp32
S'11s'
p33
aS'11s'
p34
aS'10a'
p35
aS'10b'
p36
aS'f'
p37
aS'9b'
p38
aS'f'
p39
aS'f'
p40
aa(lp41
S'10c'
p42
aS'11s'
p43
aS'12s'
p44
aS'3c'
p45
aS'6a'
p46
aS'10a'
p47
aS'12s'
p48
aS'12s'
p49
aa(lp50
S'f'
p51
aS'11s'
p52
aS'9a'
p53
aS'12s'
p54
aS'11s'
p55
aS'f'
p56
aS'12s'
p57
aS'12s'
p58
aa(lp59
S'f'
p60
aS'f'
p61
aS'11s'
p62
aS'11s'
p63
aS'12s'
p64
aS'12s'
p65
aS'f'
p66
aS'f'
p67
aasS'assigned'
p68
(dp69
I0
I00
sI1
I00
sI2
I00
sI3
I00
sI4
I00
sI5
I00
sI6
I00
sI7
I00
ssS'free_pos'
p70
S'chemistry lab'
p71
sS'title_name'
p72
S'Sonia Singh'
p73
sS'proxies'
p74
(lp75
(lp76
g4
a(i__main__
Teacher
p77
(dp78
g6
S'He is absent today.'
p79
sg8
S'Gandhi'
p80
sg10
S"Note: 'f' stands for free session and 'r' stands for recess.\n\nSession  : 1\t2\t3\t4\tr\t5\t6\t7\t8\t\n________________________________________________________________________________\n\nMonday   : 5A\tf\t6A\t7B\tr\t8A\t7A\t6A\tf\t\nTuesday  : 5A\t6A\tf\tf\tr\t5A\t6A\tf\t7B\t\nWednesday: 5A\t7A\t6A\tf\tr\t7B\t5B\tf\t6A\t\nThursday : f\t7B\tf\t3C\tr\t6A\t5A\tf\t7A\t\n <- todayFriday   : 5A\tf\t7C\t6A\tr\tf\t5A\tf\tf\t\nSaturday : f\t7B\t5A\tf\tr\t7A\t8A\tf\t6A"
p81
sg12
(lp82
(lp83
S'5a'
p84
aS'f'
p85
aS'6a'
p86
aS'7b'
p87
aS'8a'
p88
aS'7a'
p89
aS'6a'
p90
aS'f'
p91
aa(lp92
S'5a'
p93
aS'6a'
p94
aS'f'
p95
aS'f'
p96
aS'5a'
p97
aS'6a'
p98
aS'f'
p99
aS'7b'
p100
aa(lp101
S'5a'
p102
aS'7a'
p103
aS'6a'
p104
aS'f'
p105
aS'7b'
p106
aS'5b'
p107
aS'f'
p108
aS'6a'
p109
aa(lp110
S'f'
p111
aS'7b'
p112
aS'f'
p113
ag45
ag46
aS'5a'
p114
aS'f'
p115
aS'7a'
p116
aa(lp117
S'5a'
p118
aS'f'
p119
aS'7c'
p120
aS'6a'
p121
aS'f'
p122
aS'5a'
p123
aS'f'
p124
aS'f'
p125
aa(lp126
S'f'
p127
aS'7b'
p128
aS'5a'
p129
aS'f'
p130
aS'7a'
p131
aS'8a'
p132
aS'f'
p133
aS'6a'
p134
aasg68
(dp135
I0
I00
sI1
I00
sI2
I00
sI3
I00
sI4
I00
sI5
I00
sI6
I00
sI7
I00
ssg70
S'library'
p136
sg72
S'Narendra'
p137
sg74
(lp138
g76
a(lp139
g4
ag77
ag46
aI4
aasS'subjects'
p140
(lp141
S'Gujarati'
p142
aS'Spanish'
p143
asS'tod_sched'
p144
S'Session : 1\t\t2\t3\t\t4\tRECESS\x0e\t5\t6\t7\t\t8\t\nPosition: library \t7B \tlibrary \t3C \tGROUND\t6A \t5A \tlibrary \t7A \t'
p145
sS'first_name'
p146
g137
sS'name'
p147
S'Narendra Gandhi'
p148
sS'gender'
p149
S'male'
p150
sS'is_present'
p151
I00
sS'today_sched'
p152
g110
sS'classes'
p153
(lp154
S'5'
p155
aS'6'
p156
aS'7'
p157
aS'8'
p158
asS'recess_pos'
p159
S'ground'
p160
sS'history'
p161
(dp162
sbag45
aI3
aag139
asg140
(lp163
S'chemistry'
p164
asg144
S'Session : 1\t2\t3\t4\t\tRECESS\x0e\t\t5\t\t6\t7\t8\t\nPosition: 10C \t11S \t12S \t3C(proxy) \tCHEMISTRY LAB\t6A(proxy) \t10A \t12S \t12S \t'
p165
sg146
S'Sonia'
p166
sg147
g73
sg149
S'female'
p167
sg151
I01
sg152
g41
sg153
(lp168
S'10'
p169
aS'11'
p170
aS'12'
p171
aS'9'
p172
asg159
S'chemistry lab'
p173
sS'pres_pos'
p174
S'r'
p175
sg161
(dp176
sba(i__main__
Teacher
p177
(dp178
g6
S'He is most probably near staff room.'
p179
sg8
S'Yadav'
p180
sg10
S"Note: 'f' stands for free session and 'r' stands for recess.\n\nSession  : 1\t2\t3\t4\tr\t5\t6\t7\t8\t\n________________________________________________________________________________\n\nMonday   : f\t6B\t4A\t5C\tr\t1A\t2A\t3A\tf\t\nTuesday  : f\tf\t2C\t1A\tr\t3A\t5A\t1B\t4C\t\nWednesday: f\t1C\t4B\t4A\tr\t4C\t7B\tf\t3C\t\nThursday : f\t3B\t2A\t2B\tr\tf\t6A\t5C\t7C\t\n <- todayFriday   : f\t5A\t7B\t2C\tr\t3C\t6C\t5B\tf\t\nSaturday : f\t1C\t4B\t2B\tr\tf\t5B\t3B\t7A"
p181
sg12
(lp182
(lp183
S'f'
p184
aS'6b'
p185
aS'4a'
p186
aS'5c'
p187
aS'1a'
p188
aS'2a'
p189
aS'3a'
p190
aS'f'
p191
aa(lp192
S'f'
p193
aS'f'
p194
aS'2c'
p195
aS'1a'
p196
aS'3a'
p197
aS'5a'
p198
aS'1b'
p199
aS'4c'
p200
aa(lp201
S'f'
p202
aS'1c'
p203
aS'4b'
p204
aS'4a'
p205
aS'4c'
p206
aS'7b'
p207
aS'f'
p208
aS'3c'
p209
aa(lp210
S'12s'
p211
aS'3b'
p212
aS'2a'
p213
aS'2b'
p214
aS'9a'
p215
aS'6a'
p216
aS'5c'
p217
aS'7c'
p218
aa(lp219
S'f'
p220
aS'5a'
p221
aS'7b'
p222
aS'2c'
p223
aS'3c'
p224
aS'6c'
p225
aS'5b'
p226
aS'f'
p227
aa(lp228
S'f'
p229
aS'1c'
p230
aS'4b'
p231
aS'2b'
p232
aS'f'
p233
aS'5b'
p234
aS'3b'
p235
aS'7a'
p236
aasg68
(dp237
I0
I00
sI1
I00
sI2
I00
sI3
I00
sI4
I00
sI5
I00
sI6
I00
sI7
I00
ssg70
S'music room'
p238
sg72
S'Rahul'
p239
sg74
(lp240
(lp241
g177
a(i__main__
Teacher
p242
(dp243
g6
S'She is absent today.'
p244
sg8
S'Yadav'
p245
sg10
S"Note: 'f' stands for free session and 'r' stands for recess.\n\nSession  : 1\t2\t3\t4\tr\t5\t6\t7\t8\t\n________________________________________________________________________________\n\nMonday   : 10B\t10B\t12S\t11S\tr\t11S\tf\t10A\t10A\t\nTuesday  : f\t11S\tf\t12S\tr\t12S\tf\t9B\t9B\t\nWednesday: 9C\t9C\t12S\tf\tr\t9B\t11S\tf\tf\t\nThursday : 12S\t12S\t11S\tf\tr\t9A\t9A\t10B\t11S\t\n <- todayFriday   : f\t10C\t10C\t9A\tr\tf\t12S\t11S\t11S\t\nSaturday : f\t11S\t12S\t12S\tr\t9C\tf\t10C\t10A"
p246
sg12
(lp247
(lp248
S'10b'
p249
aS'10b'
p250
aS'12s'
p251
aS'11s'
p252
aS'11s'
p253
aS'f'
p254
aS'10a'
p255
aS'10a'
p256
aa(lp257
S'f'
p258
aS'11s'
p259
aS'f'
p260
aS'12s'
p261
aS'12s'
p262
aS'f'
p263
aS'9b'
p264
aS'9b'
p265
aa(lp266
S'9c'
p267
aS'9c'
p268
aS'12s'
p269
aS'f'
p270
aS'9b'
p271
aS'11s'
p272
aS'f'
p273
aS'f'
p274
aa(lp275
g211
aS'12s'
p276
aS'11s'
p277
aS'f'
p278
ag215
aS'9a'
p279
aS'10b'
p280
aS'11s'
p281
aa(lp282
S'f'
p283
aS'10c'
p284
aS'10c'
p285
aS'9a'
p286
aS'f'
p287
aS'12s'
p288
aS'11s'
p289
aS'11s'
p290
aa(lp291
S'f'
p292
aS'11s'
p293
aS'12s'
p294
aS'12s'
p295
aS'9c'
p296
aS'f'
p297
aS'10c'
p298
aS'10a'
p299
aasg68
(dp300
I0
I00
sI1
I00
sI2
I00
sI3
I00
sI4
I00
sI5
I00
sI6
I00
sI7
I00
ssg70
S'biology lab'
p301
sg72
S'Sonia Yadav'
p302
sg74
(lp303
g241
a(lp304
g177
ag242
ag215
aI4
aa(lp305
(i__main__
Teacher
p306
(dp307
g6
S'He is most probably near staff room.'
p308
sg8
S'Modi'
p309
sg10
S"Note: 'f' stands for free session and 'r' stands for recess.\n\nSession  : 1\t2\t3\t4\tr\t5\t6\t7\t8\t\n________________________________________________________________________________\n\nMonday   : 8B\tf\t7C\t11C\tr\t11C\t7C\t7A\tf\t\nTuesday  : 8B\t11C\t9A\tf\tr\t8B\t7C\t7A\tf\t\nWednesday: 8B\t7C\tf\t10C\tr\tf\t11C\t7A\tf\t\nThursday : 8B\t8B\t11C\tf\tr\t7C\t7A\tf\t11C\t\n <- todayFriday   : 8B\tf\t7A\t7C\tr\tf\t8B\t11C\t11C\t\nSaturday : 7A\t11C\tf\t7C\tr\t7C\t10C\tf\t9A"
p310
sg12
(lp311
(lp312
S'8b'
p313
aS'f'
p314
aS'7c'
p315
aS'11c'
p316
aS'11c'
p317
aS'7c'
p318
aS'7a'
p319
aS'f'
p320
aa(lp321
S'8b'
p322
aS'11c'
p323
aS'9a'
p324
aS'f'
p325
aS'8b'
p326
aS'7c'
p327
aS'7a'
p328
aS'f'
p329
aa(lp330
S'8b'
p331
aS'7c'
p332
aS'f'
p333
aS'10c'
p334
aS'f'
p335
aS'11c'
p336
aS'7a'
p337
aS'f'
p338
aa(lp339
S'8b'
p340
aS'8b'
p341
aS'11c'
p342
aS'f'
p343
aS'7c'
p344
aS'7a'
p345
ag280
aS'11c'
p346
aa(lp347
S'8b'
p348
aS'f'
p349
aS'7a'
p350
aS'7c'
p351
aS'f'
p352
aS'8b'
p353
aS'11c'
p354
aS'11c'
p355
aa(lp356
S'7a'
p357
aS'11c'
p358
aS'f'
p359
aS'7c'
p360
aS'7c'
p361
aS'10c'
p362
aS'f'
p363
aS'9a'
p364
aasg68
(dp365
I0
I00
sI1
I00
sI2
I00
sI3
I00
sI4
I00
sI5
I00
sI6
I00
sI7
I00
ssg70
S'library'
p366
sg72
S'Mulayam'
p367
sg74
(lp368
g305
asg140
(lp369
S'economics'
p370
aS'hindi'
p371
aS'social science'
p372
asg144
S"Note:'*' denotes that Mulayam is free in, or somewhere around library.\n\nSession : 1\t2\t3\t4\t\tRECESS\x0e\t\t5\t6\t7\t\t8\t\nPosition: 8B \t8B \t11C \tlibrary* \tSTAFF ROOM\t7C \t7A \t10B(proxy) \t11C \t"
p373
sg146
g367
sg147
S'Mulayam Modi'
p374
sg149
S'male'
p375
sg151
I01
sg152
g339
sg153
(lp376
S'10'
p377
aS'11'
p378
aS'7'
p379
aS'8'
p380
aS'9'
p381
asg159
S'staff room'
p382
sg174
g175
sg161
(dp383
sbag242
ag280
aI6
aasg140
(lp384
S'biology'
p385
asg144
S'Session : 1\t2\t3\t4\t\tRECESS\x0e\t5\t6\t7\t8\t\nPosition: 12S \t12S \t11S \tbiology lab \tGROUND\t9A \t9A \t10B \t11S \t'
p386
sg146
S'Sonia'
p387
sg147
g302
sg149
S'female'
p388
sg151
I00
sg152
g275
sg153
(lp389
S'10'
p390
aS'11'
p391
aS'12'
p392
aS'9'
p393
asg159
S'ground'
p394
sg161
(dp395
sbag211
aI0
aag304
asg140
(lp396
S'Civics'
p397
aS'Music'
p398
asg144
S'Session : 1\t\t2\t3\t4\tRECESS\x0e\t\t5\t\t6\t7\t8\t\nPosition: 12S(proxy) \t3B \t2A \t2B \tSTAFF ROOM\t9A(proxy) \t6A \t5C \t7C \t'
p399
sg146
g239
sg147
S'Rahul Yadav'
p400
sg149
S'male'
p401
sg151
I01
sg152
g210
sg153
(lp402
S'1'
p403
aS'2'
p404
aS'3'
p405
aS'4'
p406
aS'5'
p407
aS'6'
p408
asg159
S'staff room'
p409
sg174
g175
sg161
(dp410
sbag306
asS'pres_teachers'
p411
(lp412
g4
ag177
ag306
a(i__main__
Teacher
p413
(dp414
S'status'
p415
S'He'
p416
sS'assigned'
p417
(dp418
I0
I00
sI1
I00
sI2
I00
sI3
I00
sI4
I00
sI5
I00
sI6
I00
sI7
I00
ssS'first_name'
p419
S'Albert'
p420
sS'last_name'
p421
S'Newton'
p422
sS'sched'
p423
S"Note: 'f' stands for free session and 'r' stands for recess.\n\nSession  : 1\t2\t3\t4\tr\t5\t6\t7\t8\t\n________________________________________________________________________________\n\nMonday   : 9A\t9B\t10A\t10B\tr\tf\t11S\t12S\tf\t\nTuesday  : 10B\t10A\tf\tf\tr\t9A\t12S\t12S\tf\t\nWednesday: 10B\t12S\t10B\tf\tr\tf\t9A\tf\t10A\t\nThursday : 11S\t10A\t10B\t11S\tr\t12S\t9B\tf\tf <- today\nFriday   : f\t9A\t9B\t10A\tr\t10B\t11S\t10A\tf\t\nSaturday : f\t12S\t10A\t10B\tr\t9A\t9B\t12S\tf"
p424
sS'name'
p425
S'Albert Newton'
p426
sS'schedule'
p427
(lp428
(lp429
S'9a'
p430
aS'9b'
p431
aS'10a'
p432
aS'10b'
p433
aS'f'
p434
aS'11s'
p435
aS'12s'
p436
aS'f'
p437
aa(lp438
S'10b'
p439
aS'10a'
p440
aS'f'
p441
aS'f'
p442
aS'9a'
p443
aS'12s'
p444
aS'12s'
p445
aS'f'
p446
aa(lp447
S'10b'
p448
aS'12s'
p449
aS'10b'
p450
aS'f'
p451
aS'f'
p452
aS'9a'
p453
aS'f'
p454
aS'10a'
p455
aa(lp456
S'11s'
p457
aS'10a'
p458
aS'10b'
p459
aS'11s'
p460
aS'12s'
p461
aS'9b'
p462
aS'f'
p463
aS'f'
p464
aa(lp465
S'f'
p466
aS'9a'
p467
aS'9b'
p468
aS'10a'
p469
aS'10b'
p470
aS'11s'
p471
aS'10a'
p472
aS'f'
p473
aa(lp474
S'f'
p475
aS'12s'
p476
aS'10a'
p477
aS'10b'
p478
aS'9a'
p479
aS'9b'
p480
aS'12s'
p481
aS'f'
p482
aasS'gender'
p483
S'male'
p484
sS'is_present'
p485
I01
sS'today_sched'
p486
g456
sS'classes'
p487
(lp488
S'10'
p489
aS'11'
p490
aS'12'
p491
aS'9'
p492
asS'recess_pos'
p493
S'ground'
p494
sS'free_pos'
p495
S'physics lab'
p496
sS'title_name'
p497
g420
sS'proxies'
p498
(lp499
sS'subjects'
p500
(lp501
S' maths'
p502
aS'physics'
p503
asS'history'
p504
(dp505
sbasS'abs_teachers'
p506
(lp507
g77
ag242
asS'custom_proxies'
p508
(lp509
sS'removed_proxies'
p510
(lp511
g241
ag76
ag139
asS's_proxies'
p512
(lp513
(lp514
g306
ag77
ag45
aI3
aa(lp515
g413
ag77
ag116
aI7
aa(lp516
g413
ag242
ag280
aI6
aa(lp517
g413
ag242
ag281
aI7
aasS'gen_proxies'
p518
(lp519
g76
ag139
ag241
ag304
ag305
asS'clamoni'
p520
(dp521
g112
(lp522
I1
asg116
(lp523
I7
asg215
(lp524
I5
asg211
(lp525
I1
asg277
(lp526
I2
aI7
asg114
(lp527
I5
assS'teachers'
p528
(lp529
g4
ag242
ag177
ag77
ag306
ag413
asS'comp_proxies'
p530
(lp531
g76
ag139
ag241
ag304
ag305
ag515
asg498
(lp532
g241
ag76
ag139
ag304
ag305
asb.