(i__main__
Stats
p0
(dp1
S'proxy_teachers'
p2
(lp3
(i__main__
Teacher
p4
(dp5
S'status'
p6
S'He is most probably in class 7A.'
p7
sS'assigned'
p8
(dp9
I0
S'7a'
p10
sI1
I00
sI2
I00
sI3
I00
sI4
I00
sI5
I00
sI6
I00
sI7
S'9a'
p11
ssS'first_name'
p12
S'Albert'
p13
sS'last_name'
p14
S'Newton'
p15
sS'sched'
p16
S"Note: 'f' stands for free session and 'r' stands for recess.\n\nSession  : 1\t2\t3\t4\tr\t5\t6\t7\t8\t\n________________________________________________________________________________\n\nMonday   : 9A\t9B\t10A\t10B\tr\tf\t11S\t12S\tf\t\nTuesday  : 10B\t10A\tf\tf\tr\t9A\t12S\t12S\tf\t\nWednesday: 10B\t12S\t10B\tf\tr\tf\t9A\tf\t10A\t\nThursday : 11S\t10A\t10B\t11S\tr\t12S\t9B\tf\tf\t\nFriday   : f\t9A\t9B\t10A\tr\t10B\t11S\t10A\tf\t\nSaturday : f\t12S\t10A\t10B\tr\t9A\t9B\t12S\tf   <- today"
p17
sS'name'
p18
S'Albert Newton'
p19
sS'schedule'
p20
(lp21
(lp22
S'9a'
p23
aS'9b'
p24
aS'10a'
p25
aS'10b'
p26
aS'f'
p27
aS'11s'
p28
aS'12s'
p29
aS'f'
p30
aa(lp31
S'10b'
p32
aS'10a'
p33
aS'f'
p34
aS'f'
p35
aS'9a'
p36
aS'12s'
p37
aS'12s'
p38
aS'f'
p39
aa(lp40
S'10b'
p41
aS'12s'
p42
aS'10b'
p43
aS'f'
p44
aS'f'
p45
aS'9a'
p46
aS'f'
p47
aS'10a'
p48
aa(lp49
S'11s'
p50
aS'10a'
p51
aS'10b'
p52
aS'11s'
p53
aS'12s'
p54
aS'9b'
p55
aS'f'
p56
aS'f'
p57
aa(lp58
S'f'
p59
aS'9a'
p60
aS'9b'
p61
aS'10a'
p62
aS'10b'
p63
aS'11s'
p64
aS'10a'
p65
aS'f'
p66
aa(lp67
g10
aS'12s'
p68
aS'10a'
p69
aS'10b'
p70
aS'9a'
p71
aS'9b'
p72
aS'12s'
p73
ag11
aasS'gender'
p74
S'male'
p75
sS'pres_pos'
p76
g10
sS'is_present'
p77
I01
sS'today_sched'
p78
g67
sS'tod_sched'
p79
S'Session:1\x0e\t\t2\t3\t4\tRECESS\t5\t6\t7\t8\t\t\nStatus :7A(proxy) \t12S \t10A \t10B \tGROUND\t9A \t9B \t12S \t9A(proxy) \t'
p80
sS'classes'
p81
(lp82
S'10'
p83
aS'11'
p84
aS'12'
p85
aS'9'
p86
asS'recess_pos'
p87
S'ground'
p88
sS'saved_assignments'
p89
g9
sS'free_pos'
p90
S'physics lab'
p91
sS'title_name'
p92
g13
sS'proxies'
p93
(lp94
(lp95
g4
a(i__main__
Teacher
p96
(dp97
g6
S'He is absent today.'
p98
sg8
(dp99
I0
g4
sI1
I00
sI2
I00
sI3
(i__main__
Teacher
p100
(dp101
g6
S'He is most probably near library.'
p102
sg8
(dp103
I0
I00
sI1
I00
sI2
I00
sI3
S'7c'
p104
sI4
I00
sI5
I00
sI6
S'3b'
p105
sI7
I00
ssg12
S'Narendra'
p106
sg14
S'Gandhi'
p107
sg16
S"Note: 'f' stands for free session and 'r' stands for recess.\n\nSession  : 1\t2\t3\t4\tr\t5\t6\t7\t8\t\n________________________________________________________________________________\n\nMonday   : 5A\tf\t6A\t7B\tr\t8A\t7A\t6A\tf\t\nTuesday  : 5A\t6A\tf\tf\tr\t5A\t6A\tf\t7B\t\nWednesday: 5A\t7A\t6A\tf\tr\t7B\t5B\tf\t6A\t\nThursday : f\t7B\tf\t3C\tr\t6A\t5A\tf\t7A\t\nFriday   : 5A\tf\t7C\t6A\tr\tf\t5A\tf\tf\t\nSaturday : f\t7B\t5A\tf\tr\t7A\t8A\tf\t6A   <- today"
p108
sg18
S'Narendra Gandhi'
p109
sg20
(lp110
(lp111
S'5a'
p112
aS'f'
p113
aS'6a'
p114
aS'7b'
p115
aS'8a'
p116
aS'7a'
p117
aS'6a'
p118
aS'f'
p119
aa(lp120
S'5a'
p121
aS'6a'
p122
aS'f'
p123
aS'f'
p124
aS'5a'
p125
aS'6a'
p126
aS'f'
p127
aS'7b'
p128
aa(lp129
S'5a'
p130
aS'7a'
p131
aS'6a'
p132
aS'f'
p133
aS'7b'
p134
aS'5b'
p135
aS'f'
p136
aS'6a'
p137
aa(lp138
S'f'
p139
aS'7b'
p140
aS'f'
p141
aS'3c'
p142
aS'6a'
p143
aS'5a'
p144
aS'f'
p145
aS'7a'
p146
aa(lp147
S'5a'
p148
aS'f'
p149
aS'7c'
p150
aS'6a'
p151
aS'f'
p152
aS'5a'
p153
aS'f'
p154
aS'f'
p155
aa(lp156
S'f'
p157
aS'7b'
p158
aS'5a'
p159
ag104
aS'7a'
p160
aS'8a'
p161
ag105
aS'6a'
p162
aasg74
S'male'
p163
sg76
g157
sg77
I01
sg78
g156
sg79
S"Note:'*' denotes that Narendra is free in, or somewhere around library.\n\nSession:1\x0e\t\t2\t3\t4\t\tRECESS\t5\t6\t7\t\t8\t\nStatus :library* \t7B \t5A \t7C(proxy) \tGROUND\t7A \t8A \t3B(proxy) \t6A \t"
p164
sg81
(lp165
S'5'
p166
aS'6'
p167
aS'7'
p168
aS'8'
p169
asg87
S'ground'
p170
sg89
g103
sg90
S'library'
p171
sg92
g106
sg93
(lp172
(lp173
g100
ag96
ag104
aI3
aa(lp174
g100
a(i__main__
Teacher
p175
(dp176
g6
S'He is absent today.'
p177
sg8
(dp178
I0
I00
sI1
I00
sI2
I00
sI3
I00
sI4
I00
sI5
I00
sI6
g100
sI7
I00
ssg12
S'Rahul'
p179
sg14
S'Yadav'
p180
sg16
S"Note: 'f' stands for free session and 'r' stands for recess.\n\nSession  : 1\t2\t3\t4\tr\t5\t6\t7\t8\t\n________________________________________________________________________________\n\nMonday   : f\t6B\t4A\t5C\tr\t1A\t2A\t3A\tf\t\nTuesday  : f\tf\t2C\t1A\tr\t3A\t5A\t1B\t4C\t\nWednesday: f\t1C\t4B\t4A\tr\t4C\t7B\tf\t3C\t\nThursday : f\t3B\t2A\t2B\tr\tf\t6A\t5C\t7C\t\nFriday   : f\t5A\t7B\t2C\tr\t3C\t6C\t5B\tf\t\nSaturday : f\t1C\t4B\t2B\tr\tf\t5B\t3B\t7A   <- today"
p181
sg18
S'Rahul Yadav'
p182
sg20
(lp183
(lp184
S'f'
p185
aS'6b'
p186
aS'4a'
p187
aS'5c'
p188
aS'1a'
p189
aS'2a'
p190
aS'3a'
p191
aS'f'
p192
aa(lp193
S'f'
p194
aS'f'
p195
aS'2c'
p196
aS'1a'
p197
aS'3a'
p198
aS'5a'
p199
aS'1b'
p200
aS'4c'
p201
aa(lp202
S'f'
p203
aS'1c'
p204
aS'4b'
p205
aS'4a'
p206
aS'4c'
p207
aS'7b'
p208
aS'f'
p209
aS'3c'
p210
aa(lp211
S'f'
p212
aS'3b'
p213
aS'2a'
p214
aS'2b'
p215
aS'f'
p216
aS'6a'
p217
aS'5c'
p218
aS'7c'
p219
aa(lp220
S'f'
p221
aS'5a'
p222
aS'7b'
p223
aS'2c'
p224
aS'3c'
p225
aS'6c'
p226
aS'5b'
p227
aS'f'
p228
aa(lp229
S'f'
p230
aS'1c'
p231
aS'4b'
p232
aS'2b'
p233
aS'f'
p234
aS'5b'
p235
ag105
aS'7a'
p236
aasg74
S'male'
p237
sg77
I00
sg78
g229
sg79
S'(He is absent today.)\n\nSession:1\x0e\t\t2\t3\t4\tRECESS\t\t5\t\t6\t7\t8\t\nStatus :music room \t1C \t4B \t2B \tSTAFF ROOM\tmusic room \t5B \t3B \t7A \t'
p238
sg81
(lp239
S'1'
p240
aS'2'
p241
aS'3'
p242
aS'4'
p243
aS'5'
p244
aS'6'
p245
asg87
S'staff room'
p246
sg89
g178
sg90
S'music room'
p247
sg92
g179
sg93
(lp248
g174
asS'subjects'
p249
(lp250
S'Civics'
p251
aS'Music'
p252
asS'history'
p253
(dp254
sbag105
aI6
aasg249
(lp255
S'Gujarati'
p256
aS'Spanish'
p257
asg253
(dp258
sbsI4
I00
sI5
(i__main__
Teacher
p259
(dp260
g6
S'She is most probably near biology lab.'
p261
sg8
(dp262
I0
I00
sI1
I00
sI2
I00
sI3
I00
sI4
I00
sI5
S'10c'
p263
sI6
I00
sI7
I00
ssg12
S'Sonia'
p264
sg14
S'Yadav'
p265
sg16
S"Note: 'f' stands for free session and 'r' stands for recess.\n\nSession  : 1\t2\t3\t4\tr\t5\t6\t7\t8\t\n________________________________________________________________________________\n\nMonday   : 10B\t10B\t12S\t11S\tr\t11S\tf\t10A\t10A\t\nTuesday  : f\t11S\tf\t12S\tr\t12S\tf\t9B\t9B\t\nWednesday: 9C\t9C\t12S\tf\tr\t9B\t11S\tf\tf\t\nThursday : 12S\t12S\t11S\tf\tr\t9A\t9A\t10B\t11S\t\nFriday   : f\t10C\t10C\t9A\tr\tf\t12S\t11S\t11S\t\nSaturday : f\t11S\t12S\t12S\tr\t9C\tf\t10C\t10A   <- today"
p266
sg18
S'Sonia Yadav'
p267
sg20
(lp268
(lp269
S'10b'
p270
aS'10b'
p271
aS'12s'
p272
aS'11s'
p273
aS'11s'
p274
aS'f'
p275
aS'10a'
p276
aS'10a'
p277
aa(lp278
S'f'
p279
aS'11s'
p280
aS'f'
p281
aS'12s'
p282
aS'12s'
p283
aS'f'
p284
aS'9b'
p285
aS'9b'
p286
aa(lp287
S'9c'
p288
aS'9c'
p289
aS'12s'
p290
aS'f'
p291
aS'9b'
p292
aS'11s'
p293
aS'f'
p294
aS'f'
p295
aa(lp296
S'12s'
p297
aS'12s'
p298
aS'11s'
p299
aS'f'
p300
aS'9a'
p301
aS'9a'
p302
aS'10b'
p303
aS'11s'
p304
aa(lp305
S'f'
p306
aS'10c'
p307
aS'10c'
p308
aS'9a'
p309
aS'f'
p310
aS'12s'
p311
aS'11s'
p312
aS'11s'
p313
aa(lp314
S'f'
p315
aS'11s'
p316
aS'12s'
p317
aS'12s'
p318
aS'9c'
p319
ag263
aS'10c'
p320
aS'10a'
p321
aasg74
S'female'
p322
sg76
g315
sg77
I01
sg78
g314
sg79
S"Note:'*' denotes that Sonia is free in, or somewhere around biology lab.\n\nSession:1\x0e\t\t2\t3\t4\tRECESS\t5\t6\t\t7\t8\t\nStatus :biology lab* \t11S \t12S \t12S \tGROUND\t9C \t10C(proxy) \t10C \t10A \t"
p323
sg81
(lp324
S'10'
p325
aS'11'
p326
aS'12'
p327
aS'9'
p328
asg87
S'ground'
p329
sg89
g262
sg90
S'biology lab'
p330
sg92
g267
sg93
(lp331
(lp332
g259
ag96
ag263
aI5
aasg249
(lp333
S'biology'
p334
asg253
(dp335
sbsI6
I00
sI7
g4
ssg12
S'Mulayam'
p336
sg14
S'Modi'
p337
sg16
S"Note: 'f' stands for free session and 'r' stands for recess.\n\nSession  : 1\t2\t3\t4\tr\t5\t6\t7\t8\t\n________________________________________________________________________________\n\nMonday   : 8B\tf\t7C\t11C\tr\t11C\t7C\t7A\tf\t\nTuesday  : 8B\t11C\t9A\tf\tr\t8B\t7C\t7A\tf\t\nWednesday: 8B\t7C\tf\t10C\tr\tf\t11C\t7A\tf\t\nThursday : 8B\t8B\t11C\tf\tr\t7C\t7A\tf\t11C\t\nFriday   : 8B\tf\t7A\t7C\tr\tf\t8B\t11C\t11C\t\nSaturday : 7A\t11C\tf\t7C\tr\t7C\t10C\tf\t9A   <- today"
p338
sg18
S'Mulayam Modi'
p339
sg20
(lp340
(lp341
S'8b'
p342
aS'f'
p343
aS'7c'
p344
aS'11c'
p345
aS'11c'
p346
aS'7c'
p347
aS'7a'
p348
aS'f'
p349
aa(lp350
S'8b'
p351
aS'11c'
p352
aS'9a'
p353
aS'f'
p354
aS'8b'
p355
aS'7c'
p356
aS'7a'
p357
aS'f'
p358
aa(lp359
S'8b'
p360
aS'7c'
p361
aS'f'
p362
aS'10c'
p363
aS'f'
p364
aS'11c'
p365
aS'7a'
p366
aS'f'
p367
aa(lp368
S'8b'
p369
aS'8b'
p370
aS'11c'
p371
aS'f'
p372
aS'7c'
p373
aS'7a'
p374
aS'f'
p375
aS'11c'
p376
aa(lp377
S'8b'
p378
aS'f'
p379
aS'7a'
p380
aS'7c'
p381
aS'f'
p382
aS'8b'
p383
aS'11c'
p384
aS'11c'
p385
aa(lp386
g10
aS'11c'
p387
aS'f'
p388
ag104
aS'7c'
p389
ag263
aS'f'
p390
ag11
aasg74
S'male'
p391
sg77
I00
sg78
g386
sg79
S'(He is absent today.)\n\nSession:1\x0e\t2\t3\t\t4\tRECESS\t\t5\t6\t7\t\t8\t\nStatus :7A \t11C \tlibrary \t7C \tSTAFF ROOM\t7C \t10C \tlibrary \t9A \t'
p392
sg81
(lp393
S'10'
p394
aS'11'
p395
aS'7'
p396
aS'8'
p397
aS'9'
p398
asg87
S'staff room'
p399
sg89
g99
sg90
S'library'
p400
sg92
g336
sg93
(lp401
g95
ag173
ag332
a(lp402
g4
ag96
ag11
aI7
aasg249
(lp403
S'economics'
p404
aS'hindi'
p405
aS'social science'
p406
asg253
(dp407
sbag10
aI0
aag402
asg249
(lp408
S' maths'
p409
aS'physics'
p410
asg253
(dp411
sbag100
ag259
asS'pres_teachers'
p412
(lp413
g4
ag100
ag259
asS'abs_teachers'
p414
(lp415
g96
ag175
a(i__main__
Teacher
p416
(dp417
g6
S'She is absent today.'
p418
sg8
(dp419
I0
I00
sI1
I00
sI2
I00
sI3
I00
sI4
I00
sI5
I00
sI6
I00
sI7
I00
ssg12
S'Sonia'
p420
sg14
S'Singh'
p421
sg16
S"Note: 'f' stands for free session and 'r' stands for recess.\n\nSession  : 1\t2\t3\t4\tr\t5\t6\t7\t8\t\n________________________________________________________________________________\n\nMonday   : 10A\t10A\t11S\tf\tr\t12S\t9C\t10C\tf\t\nTuesday  : 10A\t12S\t12S\t11S\tr\tf\tf\t10B\t11S\t\nWednesday: 11S\t11S\t10A\t10B\tr\tf\t9B\tf\tf\t\nThursday : 10C\t11S\t12S\tf\tr\tf\t10A\t12S\t12S\t\nFriday   : f\t11S\t9A\t12S\tr\t11S\tf\t12S\t12S\t\nSaturday : f\tf\t11S\t11S\tr\t12S\t12S\tf\tf   <- today"
p422
sg18
S'Sonia Singh'
p423
sg20
(lp424
(lp425
S'10a'
p426
aS'10a'
p427
aS'11s'
p428
aS'f'
p429
aS'12s'
p430
aS'9c'
p431
aS'10c'
p432
aS'f'
p433
aa(lp434
S'10a'
p435
aS'12s'
p436
aS'12s'
p437
aS'11s'
p438
aS'f'
p439
aS'f'
p440
aS'10b'
p441
aS'11s'
p442
aa(lp443
S'11s'
p444
aS'11s'
p445
aS'10a'
p446
aS'10b'
p447
aS'f'
p448
aS'9b'
p449
aS'f'
p450
aS'f'
p451
aa(lp452
S'10c'
p453
aS'11s'
p454
aS'12s'
p455
aS'f'
p456
aS'f'
p457
aS'10a'
p458
aS'12s'
p459
aS'12s'
p460
aa(lp461
S'f'
p462
aS'11s'
p463
aS'9a'
p464
aS'12s'
p465
aS'11s'
p466
aS'f'
p467
aS'12s'
p468
aS'12s'
p469
aa(lp470
S'f'
p471
aS'f'
p472
aS'11s'
p473
aS'11s'
p474
aS'12s'
p475
aS'12s'
p476
aS'f'
p477
aS'f'
p478
aasg74
S'female'
p479
sg77
I00
sg78
g470
sg79
S'(She is absent today.)\n\nSession:1\x0e\t\t2\t\t3\t4\tRECESS\t\t5\t6\t7\t\t8\t\t\nStatus :chemistry lab \tchemistry lab \t11S \t11S \tCHEMISTRY LAB\t12S \t12S \tchemistry lab \tchemistry lab \t'
p480
sg81
(lp481
S'10'
p482
aS'11'
p483
aS'12'
p484
aS'9'
p485
asg87
S'chemistry lab'
p486
sg89
g419
sg90
S'chemistry lab'
p487
sg92
g423
sg93
(lp488
sg249
(lp489
S'chemistry'
p490
asg253
(dp491
sbasS'custom_proxies'
p492
(lp493
sS'removed_proxies'
p494
(lp495
sS's_proxies'
p496
(lp497
g95
a(lp498
g100
ag96
ag10
aI0
aa(lp499
g259
ag96
ag10
aI0
aag173
a(lp500
g100
ag175
ag233
aI3
aa(lp501
g100
ag416
ag474
aI3
aag332
a(lp502
g259
ag175
ag235
aI5
aa(lp503
g259
ag416
ag476
aI5
aag174
ag402
a(lp504
g4
ag175
ag236
aI7
aasS'gen_proxies'
p505
(lp506
g95
ag173
ag332
ag174
ag402
asS'clamoni'
p507
(dp508
g104
(lp509
I4
asg10
(lp510
I7
asg387
(lp511
I1
asg473
(lp512
I2
aI3
asg231
(lp513
I1
asg475
(lp514
I4
aI5
asg233
(lp515
I3
asg232
(lp516
I2
asg235
(lp517
I5
assS'teachers'
p518
(lp519
g96
ag175
ag4
ag259
ag100
ag416
asS'comp_proxies'
p520
(lp521
g95
ag173
ag332
ag174
ag402
asg93
(lp522
g95
ag173
ag332
ag174
ag402
asb.