(i__main__
Stats
p0
(dp1
S'proxy_teachers'
p2
(lp3
(i__main__
Teacher
p4
(dp5
S'status'
p6
S'She is most probably in class 10C.'
p7
sS'assigned'
p8
(dp9
I0
S'7a'
p10
sI1
S'7b'
p11
sI2
I00
sI3
I00
sI4
I00
sI5
I00
sI6
S'10c'
p12
sI7
S'6a'
p13
ssS'first_name'
p14
S'Sonia'
p15
sS'last_name'
p16
S'Singh'
p17
sS'sched'
p18
S"Note: 'f' stands for free session and 'r' stands for recess.\n\nSession  : 1\t2\t3\t4\tr\t5\t6\t7\t8\t\n________________________________________________________________________________\n\nMonday   : 10A\t10A\t11S\tf\tr\t12S\t9C\t10C\tf\t\nTuesday  : 10A\t12S\t12S\t11S\tr\tf\tf\t10B\t11S\t\nWednesday: 11S\t11S\t10A\t10B\tr\tf\t9B\tf\tf\t\nThursday : 10C\t11S\t12S\tf\tr\tf\t10A\t12S\t12S\t\nFriday   : f\t11S\t9A\t12S\tr\t11S\tf\t12S\t12S\t\nSaturday : f\tf\t11S\t11S\tr\t12S\t12S\tf\tf"
p19
sS'name'
p20
S'Sonia Singh'
p21
sS'schedule'
p22
(lp23
(lp24
S'10a'
p25
aS'10a'
p26
aS'11s'
p27
aS'f'
p28
aS'12s'
p29
aS'9c'
p30
aS'10c'
p31
aS'f'
p32
aa(lp33
S'10a'
p34
aS'12s'
p35
aS'12s'
p36
aS'11s'
p37
aS'f'
p38
aS'f'
p39
aS'10b'
p40
aS'11s'
p41
aa(lp42
S'11s'
p43
aS'11s'
p44
aS'10a'
p45
aS'10b'
p46
aS'f'
p47
aS'9b'
p48
aS'f'
p49
aS'f'
p50
aa(lp51
S'10c'
p52
aS'11s'
p53
aS'12s'
p54
aS'f'
p55
aS'f'
p56
aS'10a'
p57
aS'12s'
p58
aS'12s'
p59
aa(lp60
S'f'
p61
aS'11s'
p62
aS'9a'
p63
aS'12s'
p64
aS'11s'
p65
aS'f'
p66
aS'12s'
p67
aS'12s'
p68
aa(lp69
S'f'
p70
aS'f'
p71
aS'11s'
p72
aS'11s'
p73
aS'12s'
p74
aS'12s'
p75
aS'f'
p76
aS'f'
p77
aasS'gender'
p78
S'female'
p79
sS'is_present'
p80
I01
sS'today_sched'
p81
(lp82
g10
ag11
ag72
ag73
ag74
ag75
ag12
ag13
asS'tod_sched'
p83
S'Session : 1\t\t2\t\t3\t4\tRECESS\t\t5\t6\t7\x0e\t\t8\t\t\nPosition: 7A(proxy) \t7B(proxy) \t11S \t11S \tCHEMISTRY LAB\t12S \t12S \t10C(proxy) \t6A(proxy) \t'
p84
sS'classes'
p85
(lp86
S'10'
p87
aS'11'
p88
aS'12'
p89
aS'9'
p90
asS'recess_pos'
p91
S'chemistry lab'
p92
sS'pres_pos'
p93
g12
sS'free_pos'
p94
S'chemistry lab'
p95
sS'title_name'
p96
g21
sS'proxies'
p97
(lp98
(lp99
g4
a(i__main__
Teacher
p100
(dp101
g6
S'He is absent today.'
p102
sg8
(dp103
I0
I00
sI1
g4
sI2
I00
sI3
I00
sI4
(i__main__
Teacher
p104
(dp105
g6
S'He is most probably in class 3B.'
p106
sg8
(dp107
I0
I00
sI1
I00
sI2
I00
sI3
I00
sI4
S'7a'
p108
sI5
I00
sI6
I00
sI7
I00
ssg14
S'Rahul'
p109
sg16
S'Yadav'
p110
sg18
S"Note: 'f' stands for free session and 'r' stands for recess.\n\nSession  : 1\t2\t3\t4\tr\t5\t6\t7\t8\t\n________________________________________________________________________________\n\nMonday   : f\t6B\t4A\t5C\tr\t1A\t2A\t3A\tf\t\nTuesday  : f\tf\t2C\t1A\tr\t3A\t5A\t1B\t4C\t\nWednesday: f\t1C\t4B\t4A\tr\t4C\t7B\tf\t3C\t\nThursday : f\t3B\t2A\t2B\tr\tf\t6A\t5C\t7C\t\nFriday   : f\t5A\t7B\t2C\tr\t3C\t6C\t5B\tf\t\nSaturday : f\t1C\t4B\t2B\tr\tf\t5B\t3B\t7A"
p111
sg20
S'Rahul Yadav'
p112
sg22
(lp113
(lp114
S'f'
p115
aS'6b'
p116
aS'4a'
p117
aS'5c'
p118
aS'1a'
p119
aS'2a'
p120
aS'3a'
p121
aS'f'
p122
aa(lp123
S'f'
p124
aS'f'
p125
aS'2c'
p126
aS'1a'
p127
aS'3a'
p128
aS'5a'
p129
aS'1b'
p130
aS'4c'
p131
aa(lp132
S'f'
p133
aS'1c'
p134
aS'4b'
p135
aS'4a'
p136
aS'4c'
p137
aS'7b'
p138
aS'f'
p139
aS'3c'
p140
aa(lp141
S'f'
p142
aS'3b'
p143
aS'2a'
p144
aS'2b'
p145
aS'f'
p146
aS'6a'
p147
aS'5c'
p148
aS'7c'
p149
aa(lp150
S'f'
p151
aS'5a'
p152
aS'7b'
p153
aS'2c'
p154
aS'3c'
p155
aS'6c'
p156
aS'5b'
p157
aS'f'
p158
aa(lp159
S'f'
p160
aS'1c'
p161
aS'4b'
p162
aS'2b'
p163
aS'f'
p164
aS'5b'
p165
aS'3b'
p166
aS'7a'
p167
aasg78
S'male'
p168
sg80
I01
sg81
(lp169
g160
ag161
ag162
ag163
ag108
ag165
ag166
ag167
asg83
S"Note:'*' denotes that Rahul is free in, or somewhere around music room.\n\nSession : 1\t\t2\t3\t4\tRECESS\t\t5\t\t6\t7\x0e\t8\t\nPosition: music room* \t1C \t4B \t2B \tSTAFF ROOM\t7A(proxy) \t5B \t3B \t7A \t"
p170
sg85
(lp171
S'1'
p172
aS'2'
p173
aS'3'
p174
aS'4'
p175
aS'5'
p176
aS'6'
p177
asg91
S'staff room'
p178
sg93
g166
sg94
S'music room'
p179
sg96
g109
sg97
(lp180
(lp181
g104
ag100
ag108
aI4
aasS'subjects'
p182
(lp183
S'Civics'
p184
aS'Music'
p185
asS'history'
p186
(dp187
sbsI5
I00
sI6
I00
sI7
g4
ssg14
S'Narendra'
p188
sg16
S'Gandhi'
p189
sg18
S"Note: 'f' stands for free session and 'r' stands for recess.\n\nSession  : 1\t2\t3\t4\tr\t5\t6\t7\t8\t\n________________________________________________________________________________\n\nMonday   : 5A\tf\t6A\t7B\tr\t8A\t7A\t6A\tf\t\nTuesday  : 5A\t6A\tf\tf\tr\t5A\t6A\tf\t7B\t\nWednesday: 5A\t7A\t6A\tf\tr\t7B\t5B\tf\t6A\t\nThursday : f\t7B\tf\t3C\tr\t6A\t5A\tf\t7A\t\nFriday   : 5A\tf\t7C\t6A\tr\tf\t5A\tf\tf\t\nSaturday : f\t7B\t5A\tf\tr\t7A\t8A\tf\t6A"
p190
sg20
S'Narendra Gandhi'
p191
sg22
(lp192
(lp193
S'5a'
p194
aS'f'
p195
aS'6a'
p196
aS'7b'
p197
aS'8a'
p198
aS'7a'
p199
aS'6a'
p200
aS'f'
p201
aa(lp202
S'5a'
p203
aS'6a'
p204
aS'f'
p205
aS'f'
p206
aS'5a'
p207
aS'6a'
p208
aS'f'
p209
aS'7b'
p210
aa(lp211
S'5a'
p212
aS'7a'
p213
aS'6a'
p214
aS'f'
p215
aS'7b'
p216
aS'5b'
p217
aS'f'
p218
aS'6a'
p219
aa(lp220
S'f'
p221
aS'7b'
p222
aS'f'
p223
aS'3c'
p224
aS'6a'
p225
aS'5a'
p226
aS'f'
p227
aS'7a'
p228
aa(lp229
S'5a'
p230
aS'f'
p231
aS'7c'
p232
aS'6a'
p233
aS'f'
p234
aS'5a'
p235
aS'f'
p236
aS'f'
p237
aa(lp238
S'f'
p239
ag11
aS'5a'
p240
aS'f'
p241
ag108
aS'8a'
p242
aS'f'
p243
ag13
aasg78
S'male'
p244
sg80
I00
sg81
g238
sg83
S'Session : 1\t\t2\t3\t4\t\tRECESS\t5\t6\t7\x0e\t\t8\t\nPosition: library \t7B \t5A \tlibrary \tGROUND\t7A \t8A \tlibrary \t6A \t'
p245
sg85
(lp246
S'5'
p247
aS'6'
p248
aS'7'
p249
aS'8'
p250
asg91
S'ground'
p251
sg94
S'library'
p252
sg96
g188
sg97
(lp253
g99
a(lp254
g4
ag100
ag13
aI7
aag181
asg182
(lp255
S'Gujarati'
p256
aS'Spanish'
p257
asg186
(dp258
sbag11
aI1
aag254
a(lp259
g4
a(i__main__
Teacher
p260
(dp261
g6
S'He is absent today.'
p262
sg8
(dp263
I0
g4
sI1
I00
sI2
I00
sI3
I00
sI4
I00
sI5
I00
sI6
I00
sI7
I00
ssg14
S'Mulayam'
p264
sg16
S'Modi'
p265
sg18
S"Note: 'f' stands for free session and 'r' stands for recess.\n\nSession  : 1\t2\t3\t4\tr\t5\t6\t7\t8\t\n________________________________________________________________________________\n\nMonday   : 8B\tf\t7C\t11C\tr\t11C\t7C\t7A\tf\t\nTuesday  : 8B\t11C\t9A\tf\tr\t8B\t7C\t7A\tf\t\nWednesday: 8B\t7C\tf\t10C\tr\tf\t11C\t7A\tf\t\nThursday : 8B\t8B\t11C\tf\tr\t7C\t7A\tf\t11C\t\nFriday   : 8B\tf\t7A\t7C\tr\tf\t8B\t11C\t11C\t\nSaturday : 7A\t11C\tf\t7C\tr\t7C\t10C\tf\t9A"
p266
sg20
S'Mulayam Modi'
p267
sg22
(lp268
(lp269
S'8b'
p270
aS'f'
p271
aS'7c'
p272
aS'11c'
p273
aS'11c'
p274
aS'7c'
p275
aS'7a'
p276
aS'f'
p277
aa(lp278
S'8b'
p279
aS'11c'
p280
aS'9a'
p281
aS'f'
p282
aS'8b'
p283
aS'7c'
p284
aS'7a'
p285
aS'f'
p286
aa(lp287
S'8b'
p288
aS'7c'
p289
aS'f'
p290
aS'10c'
p291
aS'f'
p292
aS'11c'
p293
aS'7a'
p294
aS'f'
p295
aa(lp296
S'8b'
p297
aS'8b'
p298
aS'11c'
p299
aS'f'
p300
aS'7c'
p301
aS'7a'
p302
aS'f'
p303
aS'11c'
p304
aa(lp305
S'8b'
p306
aS'f'
p307
aS'7a'
p308
aS'7c'
p309
aS'f'
p310
aS'8b'
p311
aS'11c'
p312
aS'11c'
p313
aa(lp314
g10
aS'11c'
p315
aS'f'
p316
aS'7c'
p317
aS'7c'
p318
aS'10c'
p319
aS'f'
p320
aS'9a'
p321
aasg78
S'male'
p322
sg80
I00
sg81
g314
sg83
S'Session : 1\t2\t3\t\t4\tRECESS\t\t5\t6\t7\x0e\t\t8\t\nPosition: 7A \t11C \tlibrary \t7C \tSTAFF ROOM\t7C \t10C \tlibrary \t9A \t'
p323
sg85
(lp324
S'10'
p325
aS'11'
p326
aS'7'
p327
aS'8'
p328
aS'9'
p329
asg91
S'staff room'
p330
sg94
S'library'
p331
sg96
g264
sg97
(lp332
g259
asg182
(lp333
S'economics'
p334
aS'hindi'
p335
aS'social science'
p336
asg186
(dp337
sbag10
aI0
aa(lp338
g4
a(i__main__
Teacher
p339
(dp340
g6
S'She is absent today.'
p341
sg8
(dp342
I0
I00
sI1
I00
sI2
I00
sI3
I00
sI4
I00
sI5
I00
sI6
g4
sI7
I00
ssg14
S'Sonia'
p343
sg16
S'Yadav'
p344
sg18
S"Note: 'f' stands for free session and 'r' stands for recess.\n\nSession  : 1\t2\t3\t4\tr\t5\t6\t7\t8\t\n________________________________________________________________________________\n\nMonday   : 10B\t10B\t12S\t11S\tr\t11S\tf\t10A\t10A\t\nTuesday  : f\t11S\tf\t12S\tr\t12S\tf\t9B\t9B\t\nWednesday: 9C\t9C\t12S\tf\tr\t9B\t11S\tf\tf\t\nThursday : 12S\t12S\t11S\tf\tr\t9A\t9A\t10B\t11S\t\nFriday   : f\t10C\t10C\t9A\tr\tf\t12S\t11S\t11S\t\nSaturday : f\t11S\t12S\t12S\tr\t9C\tf\t10C\t10A"
p345
sg20
S'Sonia Yadav'
p346
sg22
(lp347
(lp348
S'10b'
p349
aS'10b'
p350
aS'12s'
p351
aS'11s'
p352
aS'11s'
p353
aS'f'
p354
aS'10a'
p355
aS'10a'
p356
aa(lp357
S'f'
p358
aS'11s'
p359
aS'f'
p360
aS'12s'
p361
aS'12s'
p362
aS'f'
p363
aS'9b'
p364
aS'9b'
p365
aa(lp366
S'9c'
p367
aS'9c'
p368
aS'12s'
p369
aS'f'
p370
aS'9b'
p371
aS'11s'
p372
aS'f'
p373
aS'f'
p374
aa(lp375
S'12s'
p376
aS'12s'
p377
aS'11s'
p378
aS'f'
p379
aS'9a'
p380
aS'9a'
p381
aS'10b'
p382
aS'11s'
p383
aa(lp384
S'f'
p385
aS'10c'
p386
aS'10c'
p387
aS'9a'
p388
aS'f'
p389
aS'12s'
p390
aS'11s'
p391
aS'11s'
p392
aa(lp393
S'f'
p394
aS'11s'
p395
aS'12s'
p396
aS'12s'
p397
aS'9c'
p398
aS'f'
p399
ag12
aS'10a'
p400
aasg78
S'female'
p401
sg80
I00
sg81
g393
sg83
S'Session : 1\t\t2\t3\t4\tRECESS\t5\t6\t\t7\x0e\t8\t\nPosition: biology lab \t11S \t12S \t12S \tGROUND\t9C \tbiology lab \t10C \t10A \t'
p402
sg85
(lp403
S'10'
p404
aS'11'
p405
aS'12'
p406
aS'9'
p407
asg91
S'ground'
p408
sg94
S'biology lab'
p409
sg96
g346
sg97
(lp410
g338
asg182
(lp411
S'biology'
p412
asg186
(dp413
sbag12
aI6
aasg182
(lp414
S'chemistry'
p415
asg186
(dp416
sbag104
asS'pres_teachers'
p417
(lp418
g4
ag104
asS'abs_teachers'
p419
(lp420
g100
ag260
ag339
asS'custom_proxies'
p421
(lp422
sS'removed_proxies'
p423
(lp424
sS'gen_proxies'
p425
(lp426
g99
ag254
ag181
ag259
ag338
asS'clamoni'
p427
(dp428
g400
(lp429
I7
asg317
(lp430
I3
aI4
asg315
(lp431
I1
asg321
(lp432
I7
asg319
(lp433
I5
asg398
(lp434
I4
asg242
(lp435
I5
asg395
(lp436
I1
asg396
(lp437
I2
aI3
asg240
(lp438
I2
assS'teachers'
p439
(lp440
g260
ag104
ag100
ag4
ag339
asg97
(lp441
g259
ag99
ag181
ag338
ag254
asb.