(i__main__
Stats
p0
(dp1
S'proxy_teachers'
p2
(lp3
(i__main__
Teacher
p4
(dp5
S'status'
p6
S'He is most probably near ground.'
p7
sS'assigned'
p8
(dp9
I0
S'8b'
p10
sI1
I00
sI2
I00
sI3
I00
sI4
I00
sI5
I00
sI6
I00
sI7
S'11c'
p11
ssS'first_name'
p12
S'Albert'
p13
sS'last_name'
p14
S'Newton'
p15
sS'sched'
p16
S"Note: 'f' stands for free session and 'r' stands for recess.\n\nSession  : 1\t2\t3\t4\tr\t5\t6\t7\t8\t\n________________________________________________________________________________\n\nMonday   : 9A\t9B\t10A\t10B\tr\tf\t11S\t12S\tf\t\nTuesday  : 10B\t10A\tf\tf\tr\t9A\t12S\t12S\tf\t\nWednesday: 10B\t12S\t10B\tf\tr\tf\t9A\tf\t10A\t\nThursday : 11S\t10A\t10B\t11S\tr\t12S\t9B\tf\tf\t\nFriday   : f\t9A\t9B\t10A\tr\t10B\t11S\t10A\tf   <- today\nSaturday : f\t12S\t10A\t10B\tr\t9A\t9B\t12S\tf"
p17
sS'name'
p18
S'Albert Newton'
p19
sS'schedule'
p20
(lp21
(lp22
S'9a'
p23
aS'9b'
p24
aS'10a'
p25
aS'10b'
p26
aS'f'
p27
aS'11s'
p28
aS'12s'
p29
aS'f'
p30
aa(lp31
S'10b'
p32
aS'10a'
p33
aS'f'
p34
aS'f'
p35
aS'9a'
p36
aS'12s'
p37
aS'12s'
p38
aS'f'
p39
aa(lp40
S'10b'
p41
aS'12s'
p42
aS'10b'
p43
aS'f'
p44
aS'f'
p45
aS'9a'
p46
aS'f'
p47
aS'10a'
p48
aa(lp49
S'11s'
p50
aS'10a'
p51
aS'10b'
p52
aS'11s'
p53
aS'12s'
p54
aS'9b'
p55
aS'f'
p56
aS'f'
p57
aa(lp58
g10
aS'9a'
p59
aS'9b'
p60
aS'10a'
p61
aS'10b'
p62
aS'11s'
p63
aS'10a'
p64
ag11
aa(lp65
S'f'
p66
aS'12s'
p67
aS'10a'
p68
aS'10b'
p69
aS'9a'
p70
aS'9b'
p71
aS'12s'
p72
aS'f'
p73
aasS'gender'
p74
S'male'
p75
sS'pres_pos'
p76
S'r'
p77
sS'is_present'
p78
I01
sS'today_sched'
p79
g58
sS'tod_sched'
p80
S'Session:1\t\t2\t3\t4\tRECESS\x0e\t5\t6\t7\t8\t\t\nStatus :8B(proxy) \t9A \t9B \t10A \tGROUND\t10B \t11S \t10A \t11C(proxy) \t'
p81
sS'classes'
p82
(lp83
S'10'
p84
aS'11'
p85
aS'12'
p86
aS'9'
p87
asS'recess_pos'
p88
S'ground'
p89
sS'saved_assignments'
p90
g9
sS'free_pos'
p91
S'physics lab'
p92
sS'title_name'
p93
g13
sS'proxies'
p94
(lp95
(lp96
g4
a(i__main__
Teacher
p97
(dp98
g6
S'He is absent today.'
p99
sg8
(dp100
I0
g4
sI1
I00
sI2
I00
sI3
I00
sI4
I00
sI5
(i__main__
Teacher
p101
(dp102
g6
S'She is most probably near chemistry lab.'
p103
sg8
(dp104
I0
I00
sI1
I00
sI2
I00
sI3
I00
sI4
I00
sI5
S'8b'
p105
sI6
I00
sI7
I00
ssg12
S'Sonia'
p106
sg14
S'Singh'
p107
sg16
S"Note: 'f' stands for free session and 'r' stands for recess.\n\nSession  : 1\t2\t3\t4\tr\t5\t6\t7\t8\t\n________________________________________________________________________________\n\nMonday   : 10A\t10A\t11S\tf\tr\t12S\t9C\t10C\tf\t\nTuesday  : 10A\t12S\t12S\t11S\tr\tf\tf\t10B\t11S\t\nWednesday: 11S\t11S\t10A\t10B\tr\tf\t9B\tf\tf\t\nThursday : 10C\t11S\t12S\tf\tr\tf\t10A\t12S\t12S\t\nFriday   : f\t11S\t9A\t12S\tr\t11S\tf\t12S\t12S   <- today\nSaturday : f\tf\t11S\t11S\tr\t12S\t12S\tf\tf"
p108
sg18
S'Sonia Singh'
p109
sg20
(lp110
(lp111
S'10a'
p112
aS'10a'
p113
aS'11s'
p114
aS'f'
p115
aS'12s'
p116
aS'9c'
p117
aS'10c'
p118
aS'f'
p119
aa(lp120
S'10a'
p121
aS'12s'
p122
aS'12s'
p123
aS'11s'
p124
aS'f'
p125
aS'f'
p126
aS'10b'
p127
aS'11s'
p128
aa(lp129
S'11s'
p130
aS'11s'
p131
aS'10a'
p132
aS'10b'
p133
aS'f'
p134
aS'9b'
p135
aS'f'
p136
aS'f'
p137
aa(lp138
S'10c'
p139
aS'11s'
p140
aS'12s'
p141
aS'f'
p142
aS'f'
p143
aS'10a'
p144
aS'12s'
p145
aS'12s'
p146
aa(lp147
S'f'
p148
aS'11s'
p149
aS'9a'
p150
aS'12s'
p151
aS'11s'
p152
ag105
aS'12s'
p153
aS'12s'
p154
aa(lp155
S'f'
p156
aS'f'
p157
aS'11s'
p158
aS'11s'
p159
aS'12s'
p160
aS'12s'
p161
aS'f'
p162
aS'f'
p163
aasg74
S'female'
p164
sg76
g77
sg78
I01
sg79
g147
sg80
S"Note:'*' denotes that Sonia is free in, or somewhere around chemistry lab.\n\nSession:1\t\t2\t3\t4\tRECESS\x0e\t\t5\t6\t\t7\t8\t\nStatus :chemistry lab* \t11S \t9A \t12S \tCHEMISTRY LAB\t11S \t8B(proxy) \t12S \t12S \t"
p165
sg82
(lp166
S'10'
p167
aS'11'
p168
aS'12'
p169
aS'9'
p170
asg88
S'chemistry lab'
p171
sg90
g104
sg91
S'chemistry lab'
p172
sg93
g109
sg94
(lp173
(lp174
g101
ag97
ag105
aI5
aasS'subjects'
p175
(lp176
S'chemistry'
p177
asS'history'
p178
(dp179
sbsI6
I00
sI7
g4
ssg12
S'Mulayam'
p180
sg14
S'Modi'
p181
sg16
S"Note: 'f' stands for free session and 'r' stands for recess.\n\nSession  : 1\t2\t3\t4\tr\t5\t6\t7\t8\t\n________________________________________________________________________________\n\nMonday   : 8B\tf\t7C\t11C\tr\t11C\t7C\t7A\tf\t\nTuesday  : 8B\t11C\t9A\tf\tr\t8B\t7C\t7A\tf\t\nWednesday: 8B\t7C\tf\t10C\tr\tf\t11C\t7A\tf\t\nThursday : 8B\t8B\t11C\tf\tr\t7C\t7A\tf\t11C\t\nFriday   : 8B\tf\t7A\t7C\tr\tf\t8B\t11C\t11C   <- today\nSaturday : 7A\t11C\tf\t7C\tr\t7C\t10C\tf\t9A"
p182
sg18
S'Mulayam Modi'
p183
sg20
(lp184
(lp185
S'8b'
p186
aS'f'
p187
aS'7c'
p188
aS'11c'
p189
aS'11c'
p190
aS'7c'
p191
aS'7a'
p192
aS'f'
p193
aa(lp194
S'8b'
p195
aS'11c'
p196
aS'9a'
p197
aS'f'
p198
aS'8b'
p199
aS'7c'
p200
aS'7a'
p201
aS'f'
p202
aa(lp203
S'8b'
p204
aS'7c'
p205
aS'f'
p206
aS'10c'
p207
aS'f'
p208
aS'11c'
p209
aS'7a'
p210
aS'f'
p211
aa(lp212
S'8b'
p213
aS'8b'
p214
aS'11c'
p215
aS'f'
p216
aS'7c'
p217
aS'7a'
p218
aS'f'
p219
aS'11c'
p220
aa(lp221
g10
aS'f'
p222
aS'7a'
p223
aS'7c'
p224
aS'f'
p225
ag105
aS'11c'
p226
ag11
aa(lp227
S'7a'
p228
aS'11c'
p229
aS'f'
p230
aS'7c'
p231
aS'7c'
p232
aS'10c'
p233
aS'f'
p234
aS'9a'
p235
aasg74
S'male'
p236
sg78
I00
sg79
g221
sg80
S'(He is absent today.)\n\nSession:1\t2\t\t3\t4\tRECESS\x0e\t\t5\t\t6\t7\t8\t\nStatus :8B \tlibrary \t7A \t7C \tSTAFF ROOM\tlibrary \t8B \t11C \t11C \t'
p237
sg82
(lp238
S'10'
p239
aS'11'
p240
aS'7'
p241
aS'8'
p242
aS'9'
p243
asg88
S'staff room'
p244
sg90
g100
sg91
S'library'
p245
sg93
g180
sg94
(lp246
g96
ag174
a(lp247
g4
ag97
ag11
aI7
aasg175
(lp248
S'economics'
p249
aS'hindi'
p250
aS'social science'
p251
asg178
(dp252
sbag10
aI0
aag247
asg175
(lp253
S' maths'
p254
aS'physics'
p255
asg178
(dp256
sba(i__main__
Teacher
p257
(dp258
g6
S'He is most probably near ground.'
p259
sg8
(dp260
I0
I00
sI1
S'10c'
p261
sI2
I00
sI3
I00
sI4
I00
sI5
I00
sI6
S'11s'
p262
sI7
S'11s'
p263
ssg12
S'Narendra'
p264
sg14
S'Gandhi'
p265
sg16
S"Note: 'f' stands for free session and 'r' stands for recess.\n\nSession  : 1\t2\t3\t4\tr\t5\t6\t7\t8\t\n________________________________________________________________________________\n\nMonday   : 5A\tf\t6A\t7B\tr\t8A\t7A\t6A\tf\t\nTuesday  : 5A\t6A\tf\tf\tr\t5A\t6A\tf\t7B\t\nWednesday: 5A\t7A\t6A\tf\tr\t7B\t5B\tf\t6A\t\nThursday : f\t7B\tf\t3C\tr\t6A\t5A\tf\t7A\t\nFriday   : 5A\tf\t7C\t6A\tr\tf\t5A\tf\tf   <- today\nSaturday : f\t7B\t5A\tf\tr\t7A\t8A\tf\t6A"
p266
sg18
S'Narendra Gandhi'
p267
sg20
(lp268
(lp269
S'5a'
p270
aS'f'
p271
aS'6a'
p272
aS'7b'
p273
aS'8a'
p274
aS'7a'
p275
aS'6a'
p276
aS'f'
p277
aa(lp278
S'5a'
p279
aS'6a'
p280
aS'f'
p281
aS'f'
p282
aS'5a'
p283
aS'6a'
p284
aS'f'
p285
aS'7b'
p286
aa(lp287
S'5a'
p288
aS'7a'
p289
aS'6a'
p290
aS'f'
p291
aS'7b'
p292
aS'5b'
p293
aS'f'
p294
aS'6a'
p295
aa(lp296
S'f'
p297
aS'7b'
p298
aS'f'
p299
aS'3c'
p300
aS'6a'
p301
aS'5a'
p302
aS'f'
p303
aS'7a'
p304
aa(lp305
S'5a'
p306
ag261
aS'7c'
p307
aS'6a'
p308
aS'f'
p309
aS'5a'
p310
ag262
ag263
aa(lp311
S'f'
p312
aS'7b'
p313
aS'5a'
p314
aS'f'
p315
aS'7a'
p316
aS'8a'
p317
aS'f'
p318
aS'6a'
p319
aasg74
S'male'
p320
sg76
g77
sg78
I01
sg79
g305
sg80
S"Note:'*' denotes that Narendra is free in, or somewhere around library.\n\nSession:1\t2\t\t3\t4\tRECESS\x0e\t5\t\t6\t7\t\t8\t\t\nStatus :5A \t10C(proxy) \t7C \t6A \tGROUND\tlibrary* \t5A \t11S(proxy) \t11S(proxy) \t"
p321
sg82
(lp322
S'5'
p323
aS'6'
p324
aS'7'
p325
aS'8'
p326
asg88
S'ground'
p327
sg90
g260
sg91
S'library'
p328
sg93
g264
sg94
(lp329
(lp330
g257
a(i__main__
Teacher
p331
(dp332
g6
S'She is absent today.'
p333
sg8
(dp334
I0
I00
sI1
g257
sI2
I00
sI3
I00
sI4
I00
sI5
I00
sI6
g257
sI7
g257
ssg12
S'Sonia'
p335
sg14
S'Yadav'
p336
sg16
S"Note: 'f' stands for free session and 'r' stands for recess.\n\nSession  : 1\t2\t3\t4\tr\t5\t6\t7\t8\t\n________________________________________________________________________________\n\nMonday   : 10B\t10B\t12S\t11S\tr\t11S\tf\t10A\t10A\t\nTuesday  : f\t11S\tf\t12S\tr\t12S\tf\t9B\t9B\t\nWednesday: 9C\t9C\t12S\tf\tr\t9B\t11S\tf\tf\t\nThursday : 12S\t12S\t11S\tf\tr\t9A\t9A\t10B\t11S\t\nFriday   : f\t10C\t10C\t9A\tr\tf\t12S\t11S\t11S   <- today\nSaturday : f\t11S\t12S\t12S\tr\t9C\tf\t10C\t10A"
p337
sg18
S'Sonia Yadav'
p338
sg20
(lp339
(lp340
S'10b'
p341
aS'10b'
p342
aS'12s'
p343
aS'11s'
p344
aS'11s'
p345
aS'f'
p346
aS'10a'
p347
aS'10a'
p348
aa(lp349
S'f'
p350
aS'11s'
p351
aS'f'
p352
aS'12s'
p353
aS'12s'
p354
aS'f'
p355
aS'9b'
p356
aS'9b'
p357
aa(lp358
S'9c'
p359
aS'9c'
p360
aS'12s'
p361
aS'f'
p362
aS'9b'
p363
aS'11s'
p364
aS'f'
p365
aS'f'
p366
aa(lp367
S'12s'
p368
aS'12s'
p369
aS'11s'
p370
aS'f'
p371
aS'9a'
p372
aS'9a'
p373
aS'10b'
p374
aS'11s'
p375
aa(lp376
S'f'
p377
ag261
aS'10c'
p378
aS'9a'
p379
aS'f'
p380
aS'12s'
p381
ag262
ag263
aa(lp382
S'f'
p383
aS'11s'
p384
aS'12s'
p385
aS'12s'
p386
aS'9c'
p387
aS'f'
p388
aS'10c'
p389
aS'10a'
p390
aasg74
S'female'
p391
sg78
I00
sg79
g376
sg80
S'(She is absent today.)\n\nSession:1\t\t2\t3\t4\tRECESS\x0e\t5\t\t6\t7\t8\t\nStatus :biology lab \t10C \t10C \t9A \tGROUND\tbiology lab \t12S \t11S \t11S \t'
p392
sg82
(lp393
S'10'
p394
aS'11'
p395
aS'12'
p396
aS'9'
p397
asg88
S'ground'
p398
sg90
g334
sg91
S'biology lab'
p399
sg93
g338
sg94
(lp400
g330
a(lp401
g257
ag331
ag262
aI6
aa(lp402
g257
ag331
ag263
aI7
aasg175
(lp403
S'biology'
p404
asg178
(dp405
sbag261
aI1
aag401
ag402
asg175
(lp406
S'Gujarati'
p407
aS'Spanish'
p408
asg178
(dp409
sbag101
asS'pres_teachers'
p410
(lp411
g4
ag257
ag101
a(i__main__
Teacher
p412
(dp413
g6
S'He is most probably near staff room.'
p414
sg8
(dp415
I0
I00
sI1
I00
sI2
I00
sI3
I00
sI4
I00
sI5
I00
sI6
I00
sI7
I00
ssg12
S'Rahul'
p416
sg14
S'Yadav'
p417
sg16
S"Note: 'f' stands for free session and 'r' stands for recess.\n\nSession  : 1\t2\t3\t4\tr\t5\t6\t7\t8\t\n________________________________________________________________________________\n\nMonday   : f\t6B\t4A\t5C\tr\t1A\t2A\t3A\tf\t\nTuesday  : f\tf\t2C\t1A\tr\t3A\t5A\t1B\t4C\t\nWednesday: f\t1C\t4B\t4A\tr\t4C\t7B\tf\t3C\t\nThursday : f\t3B\t2A\t2B\tr\tf\t6A\t5C\t7C\t\nFriday   : f\t5A\t7B\t2C\tr\t3C\t6C\t5B\tf   <- today\nSaturday : f\t1C\t4B\t2B\tr\tf\t5B\t3B\t7A"
p418
sg18
S'Rahul Yadav'
p419
sg20
(lp420
(lp421
S'f'
p422
aS'6b'
p423
aS'4a'
p424
aS'5c'
p425
aS'1a'
p426
aS'2a'
p427
aS'3a'
p428
aS'f'
p429
aa(lp430
S'f'
p431
aS'f'
p432
aS'2c'
p433
aS'1a'
p434
aS'3a'
p435
aS'5a'
p436
aS'1b'
p437
aS'4c'
p438
aa(lp439
S'f'
p440
aS'1c'
p441
aS'4b'
p442
aS'4a'
p443
aS'4c'
p444
aS'7b'
p445
aS'f'
p446
aS'3c'
p447
aa(lp448
S'f'
p449
aS'3b'
p450
aS'2a'
p451
aS'2b'
p452
aS'f'
p453
aS'6a'
p454
aS'5c'
p455
aS'7c'
p456
aa(lp457
S'f'
p458
aS'5a'
p459
aS'7b'
p460
aS'2c'
p461
aS'3c'
p462
aS'6c'
p463
aS'5b'
p464
aS'f'
p465
aa(lp466
S'f'
p467
aS'1c'
p468
aS'4b'
p469
aS'2b'
p470
aS'f'
p471
aS'5b'
p472
aS'3b'
p473
aS'7a'
p474
aasg74
S'male'
p475
sg76
g77
sg78
I01
sg79
g457
sg80
S"Note:'*' denotes that Rahul is free in, or somewhere around music room.\n\nSession:1\t\t2\t3\t4\tRECESS\x0e\t\t5\t6\t7\t8\t\t\nStatus :music room* \t5A \t7B \t2C \tSTAFF ROOM\t3C \t6C \t5B \tmusic room* \t"
p476
sg82
(lp477
S'1'
p478
aS'2'
p479
aS'3'
p480
aS'4'
p481
aS'5'
p482
aS'6'
p483
asg88
S'staff room'
p484
sg90
g415
sg91
S'music room'
p485
sg93
g416
sg94
(lp486
sg175
(lp487
S'Civics'
p488
aS'Music'
p489
asg178
(dp490
sbasS'abs_teachers'
p491
(lp492
g97
ag331
asS'custom_proxies'
p493
(lp494
sS'removed_proxies'
p495
(lp496
sS's_proxies'
p497
(lp498
g96
a(lp499
g101
ag97
ag10
aI0
aa(lp500
g412
ag97
ag10
aI0
aag330
ag174
a(lp501
g101
ag331
ag381
aI5
aa(lp502
g257
ag97
ag226
aI6
aag401
ag247
a(lp503
g412
ag97
ag11
aI7
aag402
a(lp504
g257
ag97
ag11
aI7
aa(lp505
g412
ag331
ag263
aI7
aa(lp506
g4
ag331
ag263
aI7
aasS'gen_proxies'
p507
(lp508
g96
ag330
ag174
ag401
ag247
ag402
asS'clamoni'
p509
(dp510
g224
(lp511
I3
asg223
(lp512
I2
asg226
(lp513
I6
asg261
(lp514
I2
asg379
(lp515
I3
asg381
(lp516
I5
assS'teachers'
p517
(lp518
g4
ag101
ag97
ag257
ag331
ag412
asS'comp_proxies'
p519
(lp520
g96
ag330
ag174
ag502
ag247
ag402
asg94
(lp521
g96
ag330
ag174
ag401
ag247
ag402
asb.