(i__main__
Stats
p0
(dp1
S'proxy_teachers'
p2
(lp3
(i__main__
Teacher
p4
(dp5
S'status'
p6
S'He is most probably in class 7C.'
p7
sS'assigned'
p8
(dp9
I0
I00
sI1
I00
sI2
S'5a'
p10
sI3
I00
sI4
I00
sI5
I00
sI6
I00
sI7
I00
ssS'first_name'
p11
S'Mulayam'
p12
sS'last_name'
p13
S'Modi'
p14
sS'sched'
p15
S"Note: 'f' stands for free session and 'r' stands for recess.\n\nSession  : 1\t2\t3\t4\tr\t5\t6\t7\t8\t\n________________________________________________________________________________\n\nMonday   : 8B\tf\t7C\t11C\tr\t11C\t7C\t7A\tf\t\nTuesday  : 8B\t11C\t9A\tf\tr\t8B\t7C\t7A\tf\t\nWednesday: 8B\t7C\tf\t10C\tr\tf\t11C\t7A\tf\t\nThursday : 8B\t8B\t11C\tf\tr\t7C\t7A\tf\t11C\t\nFriday   : 8B\tf\t7A\t7C\tr\tf\t8B\t11C\t11C\t\nSaturday : 7A\t11C\tf\t7C\tr\t7C\t10C\tf\t9A   <- today"
p16
sS'name'
p17
S'Mulayam Modi'
p18
sS'schedule'
p19
(lp20
(lp21
S'8b'
p22
aS'f'
p23
aS'7c'
p24
aS'11c'
p25
aS'11c'
p26
aS'7c'
p27
aS'7a'
p28
aS'f'
p29
aa(lp30
S'8b'
p31
aS'11c'
p32
aS'9a'
p33
aS'f'
p34
aS'8b'
p35
aS'7c'
p36
aS'7a'
p37
aS'f'
p38
aa(lp39
S'8b'
p40
aS'7c'
p41
aS'f'
p42
aS'10c'
p43
aS'f'
p44
aS'11c'
p45
aS'7a'
p46
aS'f'
p47
aa(lp48
S'8b'
p49
aS'8b'
p50
aS'11c'
p51
aS'f'
p52
aS'7c'
p53
aS'7a'
p54
aS'f'
p55
aS'11c'
p56
aa(lp57
S'8b'
p58
aS'f'
p59
aS'7a'
p60
aS'7c'
p61
aS'f'
p62
aS'8b'
p63
aS'11c'
p64
aS'11c'
p65
aa(lp66
S'7a'
p67
aS'11c'
p68
ag10
aS'7c'
p69
aS'7c'
p70
aS'10c'
p71
aS'f'
p72
aS'9a'
p73
aasS'gender'
p74
S'male'
p75
sS'pres_pos'
p76
g69
sS'is_present'
p77
I01
sS'today_sched'
p78
g66
sS'tod_sched'
p79
S"Note:'*' denotes that Mulayam is free in, or somewhere around library.\n\nSession:1\t2\t3\t\t4\x0e\tRECESS\t\t5\t6\t7\t\t8\t\nStatus :7A \t11C \t5A(proxy) \t7C \tSTAFF ROOM\t7C \t10C \tlibrary* \t9A \t"
p80
sS'classes'
p81
(lp82
S'10'
p83
aS'11'
p84
aS'7'
p85
aS'8'
p86
aS'9'
p87
asS'recess_pos'
p88
S'staff room'
p89
sS'saved_assignments'
p90
g9
sS'free_pos'
p91
S'library'
p92
sS'title_name'
p93
g12
sS'proxies'
p94
(lp95
(lp96
g4
a(i__main__
Teacher
p97
(dp98
g6
S'He is absent today.'
p99
sg8
(dp100
I0
I00
sI1
I00
sI2
g4
sI3
I00
sI4
(i__main__
Teacher
p101
(dp102
g6
S'He is most probably in class 2B.'
p103
sg8
(dp104
I0
I00
sI1
I00
sI2
I00
sI3
I00
sI4
S'7a'
p105
sI5
I00
sI6
I00
sI7
I00
ssg11
S'Rahul'
p106
sg13
S'Yadav'
p107
sg15
S"Note: 'f' stands for free session and 'r' stands for recess.\n\nSession  : 1\t2\t3\t4\tr\t5\t6\t7\t8\t\n________________________________________________________________________________\n\nMonday   : f\t6B\t4A\t5C\tr\t1A\t2A\t3A\tf\t\nTuesday  : f\tf\t2C\t1A\tr\t3A\t5A\t1B\t4C\t\nWednesday: f\t1C\t4B\t4A\tr\t4C\t7B\tf\t3C\t\nThursday : f\t3B\t2A\t2B\tr\tf\t6A\t5C\t7C\t\nFriday   : f\t5A\t7B\t2C\tr\t3C\t6C\t5B\tf\t\nSaturday : f\t1C\t4B\t2B\tr\tf\t5B\t3B\t7A   <- today"
p108
sg17
S'Rahul Yadav'
p109
sg19
(lp110
(lp111
S'f'
p112
aS'6b'
p113
aS'4a'
p114
aS'5c'
p115
aS'1a'
p116
aS'2a'
p117
aS'3a'
p118
aS'f'
p119
aa(lp120
S'f'
p121
aS'f'
p122
aS'2c'
p123
aS'1a'
p124
aS'3a'
p125
aS'5a'
p126
aS'1b'
p127
aS'4c'
p128
aa(lp129
S'f'
p130
aS'1c'
p131
aS'4b'
p132
aS'4a'
p133
aS'4c'
p134
aS'7b'
p135
aS'f'
p136
aS'3c'
p137
aa(lp138
S'f'
p139
aS'3b'
p140
aS'2a'
p141
aS'2b'
p142
aS'f'
p143
aS'6a'
p144
aS'5c'
p145
aS'7c'
p146
aa(lp147
S'f'
p148
aS'5a'
p149
aS'7b'
p150
aS'2c'
p151
aS'3c'
p152
aS'6c'
p153
aS'5b'
p154
aS'f'
p155
aa(lp156
S'f'
p157
aS'1c'
p158
aS'4b'
p159
aS'2b'
p160
ag105
aS'5b'
p161
aS'3b'
p162
aS'7a'
p163
aasg74
S'male'
p164
sg76
g160
sg77
I01
sg78
g156
sg79
S"Note:'*' denotes that Rahul is free in, or somewhere around music room.\n\nSession:1\t\t2\t3\t4\x0e\tRECESS\t\t5\t\t6\t7\t8\t\nStatus :music room* \t1C \t4B \t2B \tSTAFF ROOM\t7A(proxy) \t5B \t3B \t7A \t"
p165
sg81
(lp166
S'1'
p167
aS'2'
p168
aS'3'
p169
aS'4'
p170
aS'5'
p171
aS'6'
p172
asg88
S'staff room'
p173
sg90
g104
sg91
S'music room'
p174
sg93
g106
sg94
(lp175
(lp176
g101
ag97
ag105
aI4
aasS'subjects'
p177
(lp178
S'Civics'
p179
aS'Music'
p180
asS'history'
p181
(dp182
sbsI5
(i__main__
Teacher
p183
(dp184
g6
S'She is most probably in class 12S.'
p185
sg8
(dp186
I0
I00
sI1
I00
sI2
I00
sI3
I00
sI4
I00
sI5
S'8a'
p187
sI6
I00
sI7
I00
ssg11
S'Sonia'
p188
sg13
S'Yadav'
p189
sg15
S"Note: 'f' stands for free session and 'r' stands for recess.\n\nSession  : 1\t2\t3\t4\tr\t5\t6\t7\t8\t\n________________________________________________________________________________\n\nMonday   : 10B\t10B\t12S\t11S\tr\t11S\tf\t10A\t10A\t\nTuesday  : f\t11S\tf\t12S\tr\t12S\tf\t9B\t9B\t\nWednesday: 9C\t9C\t12S\tf\tr\t9B\t11S\tf\tf\t\nThursday : 12S\t12S\t11S\tf\tr\t9A\t9A\t10B\t11S\t\nFriday   : f\t10C\t10C\t9A\tr\tf\t12S\t11S\t11S\t\nSaturday : f\t11S\t12S\t12S\tr\t9C\tf\t10C\t10A   <- today"
p190
sg17
S'Sonia Yadav'
p191
sg19
(lp192
(lp193
S'10b'
p194
aS'10b'
p195
aS'12s'
p196
aS'11s'
p197
aS'11s'
p198
aS'f'
p199
aS'10a'
p200
aS'10a'
p201
aa(lp202
S'f'
p203
aS'11s'
p204
aS'f'
p205
aS'12s'
p206
aS'12s'
p207
aS'f'
p208
aS'9b'
p209
aS'9b'
p210
aa(lp211
S'9c'
p212
aS'9c'
p213
aS'12s'
p214
aS'f'
p215
aS'9b'
p216
aS'11s'
p217
aS'f'
p218
aS'f'
p219
aa(lp220
S'12s'
p221
aS'12s'
p222
aS'11s'
p223
aS'f'
p224
aS'9a'
p225
aS'9a'
p226
aS'10b'
p227
aS'11s'
p228
aa(lp229
S'f'
p230
aS'10c'
p231
aS'10c'
p232
aS'9a'
p233
aS'f'
p234
aS'12s'
p235
aS'11s'
p236
aS'11s'
p237
aa(lp238
S'f'
p239
aS'11s'
p240
aS'12s'
p241
aS'12s'
p242
aS'9c'
p243
ag187
aS'10c'
p244
aS'10a'
p245
aasg74
S'female'
p246
sg76
g242
sg77
I01
sg78
g238
sg79
S"Note:'*' denotes that Sonia is free in, or somewhere around biology lab.\n\nSession:1\t\t2\t3\t4\x0e\tRECESS\t5\t6\t\t7\t8\t\nStatus :biology lab* \t11S \t12S \t12S \tGROUND\t9C \t8A(proxy) \t10C \t10A \t"
p247
sg81
(lp248
S'10'
p249
aS'11'
p250
aS'12'
p251
aS'9'
p252
asg88
S'ground'
p253
sg90
g186
sg91
S'biology lab'
p254
sg93
g191
sg94
(lp255
(lp256
g183
ag97
ag187
aI5
aasg177
(lp257
S'biology'
p258
asg181
(dp259
sbsI6
I00
sI7
(i__main__
Teacher
p260
(dp261
g6
S'He is most probably in class 10B.'
p262
sg8
(dp263
I0
I00
sI1
I00
sI2
I00
sI3
I00
sI4
I00
sI5
I00
sI6
I00
sI7
S'6a'
p264
ssg11
S'Albert'
p265
sg13
S'Newton'
p266
sg15
S"Note: 'f' stands for free session and 'r' stands for recess.\n\nSession  : 1\t2\t3\t4\tr\t5\t6\t7\t8\t\n________________________________________________________________________________\n\nMonday   : 9A\t9B\t10A\t10B\tr\tf\t11S\t12S\tf\t\nTuesday  : 10B\t10A\tf\tf\tr\t9A\t12S\t12S\tf\t\nWednesday: 10B\t12S\t10B\tf\tr\tf\t9A\tf\t10A\t\nThursday : 11S\t10A\t10B\t11S\tr\t12S\t9B\tf\tf\t\nFriday   : f\t9A\t9B\t10A\tr\t10B\t11S\t10A\tf\t\nSaturday : f\t12S\t10A\t10B\tr\t9A\t9B\t12S\tf   <- today"
p267
sg17
S'Albert Newton'
p268
sg19
(lp269
(lp270
S'9a'
p271
aS'9b'
p272
aS'10a'
p273
aS'10b'
p274
aS'f'
p275
aS'11s'
p276
aS'12s'
p277
aS'f'
p278
aa(lp279
S'10b'
p280
aS'10a'
p281
aS'f'
p282
aS'f'
p283
aS'9a'
p284
aS'12s'
p285
aS'12s'
p286
aS'f'
p287
aa(lp288
S'10b'
p289
aS'12s'
p290
aS'10b'
p291
aS'f'
p292
aS'f'
p293
aS'9a'
p294
aS'f'
p295
aS'10a'
p296
aa(lp297
S'11s'
p298
aS'10a'
p299
aS'10b'
p300
aS'11s'
p301
aS'12s'
p302
aS'9b'
p303
aS'f'
p304
aS'f'
p305
aa(lp306
S'f'
p307
aS'9a'
p308
aS'9b'
p309
aS'10a'
p310
aS'10b'
p311
aS'11s'
p312
aS'10a'
p313
aS'f'
p314
aa(lp315
S'f'
p316
aS'12s'
p317
aS'10a'
p318
aS'10b'
p319
aS'9a'
p320
aS'9b'
p321
aS'12s'
p322
ag264
aasg74
S'male'
p323
sg76
g319
sg77
I01
sg78
g315
sg79
S"Note:'*' denotes that Albert is free in, or somewhere around physics lab.\n\nSession:1\t\t2\t3\t4\x0e\tRECESS\t5\t6\t7\t8\t\t\nStatus :physics lab* \t12S \t10A \t10B \tGROUND\t9A \t9B \t12S \t6A(proxy) \t"
p324
sg81
(lp325
S'10'
p326
aS'11'
p327
aS'12'
p328
aS'9'
p329
asg88
S'ground'
p330
sg90
g263
sg91
S'physics lab'
p331
sg93
g265
sg94
(lp332
(lp333
g260
ag97
ag264
aI7
aasg177
(lp334
S' maths'
p335
aS'physics'
p336
asg181
(dp337
sbssg11
S'Narendra'
p338
sg13
S'Gandhi'
p339
sg15
S"Note: 'f' stands for free session and 'r' stands for recess.\n\nSession  : 1\t2\t3\t4\tr\t5\t6\t7\t8\t\n________________________________________________________________________________\n\nMonday   : 5A\tf\t6A\t7B\tr\t8A\t7A\t6A\tf\t\nTuesday  : 5A\t6A\tf\tf\tr\t5A\t6A\tf\t7B\t\nWednesday: 5A\t7A\t6A\tf\tr\t7B\t5B\tf\t6A\t\nThursday : f\t7B\tf\t3C\tr\t6A\t5A\tf\t7A\t\nFriday   : 5A\tf\t7C\t6A\tr\tf\t5A\tf\tf\t\nSaturday : f\t7B\t5A\tf\tr\t7A\t8A\tf\t6A   <- today"
p340
sg17
S'Narendra Gandhi'
p341
sg19
(lp342
(lp343
S'5a'
p344
aS'f'
p345
aS'6a'
p346
aS'7b'
p347
aS'8a'
p348
aS'7a'
p349
aS'6a'
p350
aS'f'
p351
aa(lp352
S'5a'
p353
aS'6a'
p354
aS'f'
p355
aS'f'
p356
aS'5a'
p357
aS'6a'
p358
aS'f'
p359
aS'7b'
p360
aa(lp361
S'5a'
p362
aS'7a'
p363
aS'6a'
p364
aS'f'
p365
aS'7b'
p366
aS'5b'
p367
aS'f'
p368
aS'6a'
p369
aa(lp370
S'f'
p371
aS'7b'
p372
aS'f'
p373
aS'3c'
p374
aS'6a'
p375
aS'5a'
p376
aS'f'
p377
aS'7a'
p378
aa(lp379
S'5a'
p380
aS'f'
p381
aS'7c'
p382
aS'6a'
p383
aS'f'
p384
aS'5a'
p385
aS'f'
p386
aS'f'
p387
aa(lp388
S'f'
p389
aS'7b'
p390
ag10
aS'f'
p391
ag105
ag187
aS'f'
p392
ag264
aasg74
S'male'
p393
sg77
I00
sg78
g388
sg79
S'(He is absent today.)\n\nSession:1\t\t2\t3\t4\x0e\t\tRECESS\t5\t6\t7\t\t8\t\nStatus :library \t7B \t5A \tlibrary \tGROUND\t7A \t8A \tlibrary \t6A \t'
p394
sg81
(lp395
S'5'
p396
aS'6'
p397
aS'7'
p398
aS'8'
p399
asg88
S'ground'
p400
sg90
g100
sg91
S'library'
p401
sg93
g338
sg94
(lp402
g96
ag176
ag256
ag333
asg177
(lp403
S'Gujarati'
p404
aS'Spanish'
p405
asg181
(dp406
sbag10
aI2
aasg177
(lp407
S'economics'
p408
aS'hindi'
p409
aS'social science'
p410
asg181
(dp411
sbag101
ag183
ag260
asS'pres_teachers'
p412
(lp413
g101
ag260
ag183
ag4
asS'abs_teachers'
p414
(lp415
g97
a(i__main__
Teacher
p416
(dp417
g6
S'She is absent today.'
p418
sg8
(dp419
I0
I00
sI1
I00
sI2
I00
sI3
I00
sI4
I00
sI5
I00
sI6
I00
sI7
I00
ssg11
S'Sonia'
p420
sg13
S'Singh'
p421
sg15
S"Note: 'f' stands for free session and 'r' stands for recess.\n\nSession  : 1\t2\t3\t4\tr\t5\t6\t7\t8\t\n________________________________________________________________________________\n\nMonday   : 10A\t10A\t11S\tf\tr\t12S\t9C\t10C\tf\t\nTuesday  : 10A\t12S\t12S\t11S\tr\tf\tf\t10B\t11S\t\nWednesday: 11S\t11S\t10A\t10B\tr\tf\t9B\tf\tf\t\nThursday : 10C\t11S\t12S\tf\tr\tf\t10A\t12S\t12S\t\nFriday   : f\t11S\t9A\t12S\tr\t11S\tf\t12S\t12S\t\nSaturday : f\tf\t11S\t11S\tr\t12S\t12S\tf\tf   <- today"
p422
sg17
S'Sonia Singh'
p423
sg19
(lp424
(lp425
S'10a'
p426
aS'10a'
p427
aS'11s'
p428
aS'f'
p429
aS'12s'
p430
aS'9c'
p431
aS'10c'
p432
aS'f'
p433
aa(lp434
S'10a'
p435
aS'12s'
p436
aS'12s'
p437
aS'11s'
p438
aS'f'
p439
aS'f'
p440
aS'10b'
p441
aS'11s'
p442
aa(lp443
S'11s'
p444
aS'11s'
p445
aS'10a'
p446
aS'10b'
p447
aS'f'
p448
aS'9b'
p449
aS'f'
p450
aS'f'
p451
aa(lp452
S'10c'
p453
aS'11s'
p454
aS'12s'
p455
aS'f'
p456
aS'f'
p457
aS'10a'
p458
aS'12s'
p459
aS'12s'
p460
aa(lp461
S'f'
p462
aS'11s'
p463
aS'9a'
p464
aS'12s'
p465
aS'11s'
p466
aS'f'
p467
aS'12s'
p468
aS'12s'
p469
aa(lp470
S'f'
p471
aS'f'
p472
aS'11s'
p473
aS'11s'
p474
aS'12s'
p475
aS'12s'
p476
aS'f'
p477
aS'f'
p478
aasg74
S'female'
p479
sg77
I00
sg78
g470
sg79
S'(She is absent today.)\n\nSession:1\t\t2\t\t3\t4\x0e\tRECESS\t\t5\t6\t7\t\t8\t\t\nStatus :chemistry lab \tchemistry lab \t11S \t11S \tCHEMISTRY LAB\t12S \t12S \tchemistry lab \tchemistry lab \t'
p480
sg81
(lp481
S'10'
p482
aS'11'
p483
aS'12'
p484
aS'9'
p485
asg88
S'chemistry lab'
p486
sg90
g419
sg91
S'chemistry lab'
p487
sg93
g423
sg94
(lp488
sg177
(lp489
S'chemistry'
p490
asg181
(dp491
sbasS'custom_proxies'
p492
(lp493
sS'removed_proxies'
p494
(lp495
sS's_proxies'
p496
(lp497
g96
a(lp498
g4
ag416
ag473
aI2
aag176
a(lp499
g101
ag416
ag475
aI4
aag256
a(lp500
g183
ag416
ag476
aI5
aag333
asS'gen_proxies'
p501
(lp502
g96
ag176
ag256
ag333
asS'clamoni'
p503
(dp504
g390
(lp505
I1
asg475
(lp506
I4
aI5
asg473
(lp507
I2
aI3
assS'teachers'
p508
(lp509
g4
ag101
ag260
ag183
ag97
ag416
asS'comp_proxies'
p510
(lp511
g96
ag176
ag256
ag333
asg94
(lp512
g96
ag176
ag256
ag333
asb.