(i__main__
Stats
p0
(dp1
S'proxy_teachers'
p2
(lp3
(i__main__
Teacher
p4
(dp5
S'status'
p6
S'He is most probably in class 2B.'
p7
sS'assigned'
p8
(dp9
I0
I00
sI1
I00
sI2
I00
sI3
I00
sI4
S'7c'
p10
sI5
I00
sI6
I00
sI7
I00
ssS'first_name'
p11
S'Rahul'
p12
sS'last_name'
p13
S'Yadav'
p14
sS'sched'
p15
S"Note: 'f' stands for free session and 'r' stands for recess.\n\nSession  : 1\t2\t3\t4\tr\t5\t6\t7\t8\t\n________________________________________________________________________________\n\nMonday   : f\t6B\t4A\t5C\tr\t1A\t2A\t3A\tf\t\nTuesday  : f\tf\t2C\t1A\tr\t3A\t5A\t1B\t4C\t\nWednesday: f\t1C\t4B\t4A\tr\t4C\t7B\tf\t3C\t\nThursday : f\t3B\t2A\t2B\tr\tf\t6A\t5C\t7C\t\nFriday   : f\t5A\t7B\t2C\tr\t3C\t6C\t5B\tf\t\nSaturday : f\t1C\t4B\t2B\tr\tf\t5B\t3B\t7A   <- today"
p16
sS'name'
p17
S'Rahul Yadav'
p18
sS'schedule'
p19
(lp20
(lp21
S'f'
p22
aS'6b'
p23
aS'4a'
p24
aS'5c'
p25
aS'1a'
p26
aS'2a'
p27
aS'3a'
p28
aS'f'
p29
aa(lp30
S'f'
p31
aS'f'
p32
aS'2c'
p33
aS'1a'
p34
aS'3a'
p35
aS'5a'
p36
aS'1b'
p37
aS'4c'
p38
aa(lp39
S'f'
p40
aS'1c'
p41
aS'4b'
p42
aS'4a'
p43
aS'4c'
p44
aS'7b'
p45
aS'f'
p46
aS'3c'
p47
aa(lp48
S'f'
p49
aS'3b'
p50
aS'2a'
p51
aS'2b'
p52
aS'f'
p53
aS'6a'
p54
aS'5c'
p55
aS'7c'
p56
aa(lp57
S'f'
p58
aS'5a'
p59
aS'7b'
p60
aS'2c'
p61
aS'3c'
p62
aS'6c'
p63
aS'5b'
p64
aS'f'
p65
aa(lp66
S'f'
p67
aS'1c'
p68
aS'4b'
p69
aS'2b'
p70
ag10
aS'5b'
p71
aS'3b'
p72
aS'7a'
p73
aasS'gender'
p74
S'male'
p75
sS'pres_pos'
p76
g70
sS'is_present'
p77
I01
sS'today_sched'
p78
g66
sS'tod_sched'
p79
S"Note:'*' denotes that Rahul is free in, or somewhere around music room.\n\nSession:1\t\t2\t3\t4\x0e\tRECESS\t\t5\t\t6\t7\t8\t\nStatus :music room* \t1C \t4B \t2B \tSTAFF ROOM\t7C(proxy) \t5B \t3B \t7A \t"
p80
sS'classes'
p81
(lp82
S'1'
p83
aS'2'
p84
aS'3'
p85
aS'4'
p86
aS'5'
p87
aS'6'
p88
asS'recess_pos'
p89
S'staff room'
p90
sS'saved_assignments'
p91
g9
sS'free_pos'
p92
S'music room'
p93
sS'title_name'
p94
g12
sS'proxies'
p95
(lp96
(lp97
g4
a(i__main__
Teacher
p98
(dp99
g6
S'He is absent today.'
p100
sg8
(dp101
I0
(i__main__
Teacher
p102
(dp103
g6
S'He is most probably in class 7C.'
p104
sg8
(dp105
I0
S'7a'
p106
sI1
I00
sI2
I00
sI3
S'7c'
p107
sI4
I00
sI5
I00
sI6
S'10c'
p108
sI7
I00
ssg11
S'Narendra'
p109
sg13
S'Gandhi'
p110
sg15
S"Note: 'f' stands for free session and 'r' stands for recess.\n\nSession  : 1\t2\t3\t4\tr\t5\t6\t7\t8\t\n________________________________________________________________________________\n\nMonday   : 5A\tf\t6A\t7B\tr\t8A\t7A\t6A\tf\t\nTuesday  : 5A\t6A\tf\tf\tr\t5A\t6A\tf\t7B\t\nWednesday: 5A\t7A\t6A\tf\tr\t7B\t5B\tf\t6A\t\nThursday : f\t7B\tf\t3C\tr\t6A\t5A\tf\t7A\t\nFriday   : 5A\tf\t7C\t6A\tr\tf\t5A\tf\tf\t\nSaturday : f\t7B\t5A\tf\tr\t7A\t8A\tf\t6A   <- today"
p111
sg17
S'Narendra Gandhi'
p112
sg19
(lp113
(lp114
S'5a'
p115
aS'f'
p116
aS'6a'
p117
aS'7b'
p118
aS'8a'
p119
aS'7a'
p120
aS'6a'
p121
aS'f'
p122
aa(lp123
S'5a'
p124
aS'6a'
p125
aS'f'
p126
aS'f'
p127
aS'5a'
p128
aS'6a'
p129
aS'f'
p130
aS'7b'
p131
aa(lp132
S'5a'
p133
aS'7a'
p134
aS'6a'
p135
aS'f'
p136
aS'7b'
p137
aS'5b'
p138
aS'f'
p139
aS'6a'
p140
aa(lp141
S'f'
p142
aS'7b'
p143
aS'f'
p144
aS'3c'
p145
aS'6a'
p146
aS'5a'
p147
aS'f'
p148
aS'7a'
p149
aa(lp150
S'5a'
p151
aS'f'
p152
aS'7c'
p153
aS'6a'
p154
aS'f'
p155
aS'5a'
p156
aS'f'
p157
aS'f'
p158
aa(lp159
g106
aS'7b'
p160
aS'5a'
p161
ag107
aS'7a'
p162
aS'8a'
p163
ag108
aS'6a'
p164
aasg74
S'male'
p165
sg76
g107
sg77
I01
sg78
g159
sg79
S'Session:1\t\t2\t3\t4\x0e\t\tRECESS\t5\t6\t7\t\t8\t\nStatus :7A(proxy) \t7B \t5A \t7C(proxy) \tGROUND\t7A \t8A \t10C(proxy) \t6A \t'
p166
sg81
(lp167
S'5'
p168
aS'6'
p169
aS'7'
p170
aS'8'
p171
asg89
S'ground'
p172
sg91
g105
sg92
S'library'
p173
sg94
g109
sg95
(lp174
(lp175
g102
ag98
ag106
aI0
aa(lp176
g102
ag98
ag107
aI3
aa(lp177
g102
a(i__main__
Teacher
p178
(dp179
g6
S'She is absent today.'
p180
sg8
(dp181
I0
I00
sI1
I00
sI2
I00
sI3
I00
sI4
I00
sI5
I00
sI6
g102
sI7
(i__main__
Teacher
p182
(dp183
g6
S'He is most probably in class 10B.'
p184
sg8
(dp185
I0
I00
sI1
I00
sI2
I00
sI3
I00
sI4
I00
sI5
I00
sI6
I00
sI7
S'10a'
p186
ssg11
S'Albert'
p187
sg13
S'Newton'
p188
sg15
S"Note: 'f' stands for free session and 'r' stands for recess.\n\nSession  : 1\t2\t3\t4\tr\t5\t6\t7\t8\t\n________________________________________________________________________________\n\nMonday   : 9A\t9B\t10A\t10B\tr\tf\t11S\t12S\tf\t\nTuesday  : 10B\t10A\tf\tf\tr\t9A\t12S\t12S\tf\t\nWednesday: 10B\t12S\t10B\tf\tr\tf\t9A\tf\t10A\t\nThursday : 11S\t10A\t10B\t11S\tr\t12S\t9B\tf\tf\t\nFriday   : f\t9A\t9B\t10A\tr\t10B\t11S\t10A\tf\t\nSaturday : f\t12S\t10A\t10B\tr\t9A\t9B\t12S\tf   <- today"
p189
sg17
S'Albert Newton'
p190
sg19
(lp191
(lp192
S'9a'
p193
aS'9b'
p194
aS'10a'
p195
aS'10b'
p196
aS'f'
p197
aS'11s'
p198
aS'12s'
p199
aS'f'
p200
aa(lp201
S'10b'
p202
aS'10a'
p203
aS'f'
p204
aS'f'
p205
aS'9a'
p206
aS'12s'
p207
aS'12s'
p208
aS'f'
p209
aa(lp210
S'10b'
p211
aS'12s'
p212
aS'10b'
p213
aS'f'
p214
aS'f'
p215
aS'9a'
p216
aS'f'
p217
aS'10a'
p218
aa(lp219
S'11s'
p220
aS'10a'
p221
aS'10b'
p222
aS'11s'
p223
aS'12s'
p224
aS'9b'
p225
aS'f'
p226
aS'f'
p227
aa(lp228
S'f'
p229
aS'9a'
p230
aS'9b'
p231
aS'10a'
p232
aS'10b'
p233
aS'11s'
p234
aS'10a'
p235
aS'f'
p236
aa(lp237
S'f'
p238
aS'12s'
p239
aS'10a'
p240
aS'10b'
p241
aS'9a'
p242
aS'9b'
p243
aS'12s'
p244
ag186
aasg74
S'male'
p245
sg76
g241
sg77
I01
sg78
g237
sg79
S"Note:'*' denotes that Albert is free in, or somewhere around physics lab.\n\nSession:1\t\t2\t3\t4\x0e\tRECESS\t5\t6\t7\t8\t\t\nStatus :physics lab* \t12S \t10A \t10B \tGROUND\t9A \t9B \t12S \t10A(proxy) \t"
p246
sg81
(lp247
S'10'
p248
aS'11'
p249
aS'12'
p250
aS'9'
p251
asg89
S'ground'
p252
sg91
g185
sg92
S'physics lab'
p253
sg94
g187
sg95
(lp254
(lp255
g182
ag178
ag186
aI7
aasS'subjects'
p256
(lp257
S' maths'
p258
aS'physics'
p259
asS'history'
p260
(dp261
sbssg11
S'Sonia'
p262
sg13
S'Yadav'
p263
sg15
S"Note: 'f' stands for free session and 'r' stands for recess.\n\nSession  : 1\t2\t3\t4\tr\t5\t6\t7\t8\t\n________________________________________________________________________________\n\nMonday   : 10B\t10B\t12S\t11S\tr\t11S\tf\t10A\t10A\t\nTuesday  : f\t11S\tf\t12S\tr\t12S\tf\t9B\t9B\t\nWednesday: 9C\t9C\t12S\tf\tr\t9B\t11S\tf\tf\t\nThursday : 12S\t12S\t11S\tf\tr\t9A\t9A\t10B\t11S\t\nFriday   : f\t10C\t10C\t9A\tr\tf\t12S\t11S\t11S\t\nSaturday : f\t11S\t12S\t12S\tr\t9C\tf\t10C\t10A   <- today"
p264
sg17
S'Sonia Yadav'
p265
sg19
(lp266
(lp267
S'10b'
p268
aS'10b'
p269
aS'12s'
p270
aS'11s'
p271
aS'11s'
p272
aS'f'
p273
aS'10a'
p274
aS'10a'
p275
aa(lp276
S'f'
p277
aS'11s'
p278
aS'f'
p279
aS'12s'
p280
aS'12s'
p281
aS'f'
p282
aS'9b'
p283
aS'9b'
p284
aa(lp285
S'9c'
p286
aS'9c'
p287
aS'12s'
p288
aS'f'
p289
aS'9b'
p290
aS'11s'
p291
aS'f'
p292
aS'f'
p293
aa(lp294
S'12s'
p295
aS'12s'
p296
aS'11s'
p297
aS'f'
p298
aS'9a'
p299
aS'9a'
p300
aS'10b'
p301
aS'11s'
p302
aa(lp303
S'f'
p304
aS'10c'
p305
aS'10c'
p306
aS'9a'
p307
aS'f'
p308
aS'12s'
p309
aS'11s'
p310
aS'11s'
p311
aa(lp312
S'f'
p313
aS'11s'
p314
aS'12s'
p315
aS'12s'
p316
aS'9c'
p317
aS'f'
p318
ag108
ag186
aasg74
S'female'
p319
sg77
I00
sg78
g312
sg79
S'(She is absent today.)\n\nSession:1\t\t2\t3\t4\x0e\tRECESS\t5\t6\t\t7\t8\t\nStatus :biology lab \t11S \t12S \t12S \tGROUND\t9C \tbiology lab \t10C \t10A \t'
p320
sg81
(lp321
S'10'
p322
aS'11'
p323
aS'12'
p324
aS'9'
p325
asg89
S'ground'
p326
sg91
g181
sg92
S'biology lab'
p327
sg94
g265
sg95
(lp328
g177
ag255
asg256
(lp329
S'biology'
p330
asg260
(dp331
sbag108
aI6
aasg256
(lp332
S'Gujarati'
p333
aS'Spanish'
p334
asg260
(dp335
sbsI1
(i__main__
Teacher
p336
(dp337
g6
S'She is most probably in class 11S.'
p338
sg8
(dp339
I0
I00
sI1
S'11c'
p340
sI2
I00
sI3
I00
sI4
I00
sI5
I00
sI6
I00
sI7
S'9a'
p341
ssg11
S'Sonia'
p342
sg13
S'Singh'
p343
sg15
S"Note: 'f' stands for free session and 'r' stands for recess.\n\nSession  : 1\t2\t3\t4\tr\t5\t6\t7\t8\t\n________________________________________________________________________________\n\nMonday   : 10A\t10A\t11S\tf\tr\t12S\t9C\t10C\tf\t\nTuesday  : 10A\t12S\t12S\t11S\tr\tf\tf\t10B\t11S\t\nWednesday: 11S\t11S\t10A\t10B\tr\tf\t9B\tf\tf\t\nThursday : 10C\t11S\t12S\tf\tr\tf\t10A\t12S\t12S\t\nFriday   : f\t11S\t9A\t12S\tr\t11S\tf\t12S\t12S\t\nSaturday : f\tf\t11S\t11S\tr\t12S\t12S\tf\tf   <- today"
p344
sg17
S'Sonia Singh'
p345
sg19
(lp346
(lp347
S'10a'
p348
aS'10a'
p349
aS'11s'
p350
aS'f'
p351
aS'12s'
p352
aS'9c'
p353
aS'10c'
p354
aS'f'
p355
aa(lp356
S'10a'
p357
aS'12s'
p358
aS'12s'
p359
aS'11s'
p360
aS'f'
p361
aS'f'
p362
aS'10b'
p363
aS'11s'
p364
aa(lp365
S'11s'
p366
aS'11s'
p367
aS'10a'
p368
aS'10b'
p369
aS'f'
p370
aS'9b'
p371
aS'f'
p372
aS'f'
p373
aa(lp374
S'10c'
p375
aS'11s'
p376
aS'12s'
p377
aS'f'
p378
aS'f'
p379
aS'10a'
p380
aS'12s'
p381
aS'12s'
p382
aa(lp383
S'f'
p384
aS'11s'
p385
aS'9a'
p386
aS'12s'
p387
aS'11s'
p388
aS'f'
p389
aS'12s'
p390
aS'12s'
p391
aa(lp392
S'f'
p393
ag340
aS'11s'
p394
aS'11s'
p395
aS'12s'
p396
aS'12s'
p397
aS'f'
p398
ag341
aasg74
S'female'
p399
sg76
g395
sg77
I01
sg78
g392
sg79
S"Note:'*' denotes that Sonia is free in, or somewhere around chemistry lab.\n\nSession:1\t\t2\t\t3\t4\x0e\tRECESS\t\t5\t6\t7\t\t8\t\t\nStatus :chemistry lab* \t11C(proxy) \t11S \t11S \tCHEMISTRY LAB\t12S \t12S \tchemistry lab* \t9A(proxy) \t"
p400
sg81
(lp401
S'10'
p402
aS'11'
p403
aS'12'
p404
aS'9'
p405
asg89
S'chemistry lab'
p406
sg91
g339
sg92
S'chemistry lab'
p407
sg94
g345
sg95
(lp408
(lp409
g336
ag98
ag340
aI1
aa(lp410
g336
ag98
ag341
aI7
aasg256
(lp411
S'chemistry'
p412
asg260
(dp413
sbsI2
I00
sI3
g102
sI4
g4
sI5
I00
sI6
I00
sI7
g336
ssg11
S'Mulayam'
p414
sg13
S'Modi'
p415
sg15
S"Note: 'f' stands for free session and 'r' stands for recess.\n\nSession  : 1\t2\t3\t4\tr\t5\t6\t7\t8\t\n________________________________________________________________________________\n\nMonday   : 8B\tf\t7C\t11C\tr\t11C\t7C\t7A\tf\t\nTuesday  : 8B\t11C\t9A\tf\tr\t8B\t7C\t7A\tf\t\nWednesday: 8B\t7C\tf\t10C\tr\tf\t11C\t7A\tf\t\nThursday : 8B\t8B\t11C\tf\tr\t7C\t7A\tf\t11C\t\nFriday   : 8B\tf\t7A\t7C\tr\tf\t8B\t11C\t11C\t\nSaturday : 7A\t11C\tf\t7C\tr\t7C\t10C\tf\t9A   <- today"
p416
sg17
S'Mulayam Modi'
p417
sg19
(lp418
(lp419
S'8b'
p420
aS'f'
p421
aS'7c'
p422
aS'11c'
p423
aS'11c'
p424
aS'7c'
p425
aS'7a'
p426
aS'f'
p427
aa(lp428
S'8b'
p429
aS'11c'
p430
aS'9a'
p431
aS'f'
p432
aS'8b'
p433
aS'7c'
p434
aS'7a'
p435
aS'f'
p436
aa(lp437
S'8b'
p438
aS'7c'
p439
aS'f'
p440
aS'10c'
p441
aS'f'
p442
aS'11c'
p443
aS'7a'
p444
aS'f'
p445
aa(lp446
S'8b'
p447
aS'8b'
p448
aS'11c'
p449
aS'f'
p450
aS'7c'
p451
aS'7a'
p452
aS'f'
p453
aS'11c'
p454
aa(lp455
S'8b'
p456
aS'f'
p457
aS'7a'
p458
aS'7c'
p459
aS'f'
p460
aS'8b'
p461
aS'11c'
p462
aS'11c'
p463
aa(lp464
g106
ag340
aS'f'
p465
ag107
ag10
aS'10c'
p466
aS'f'
p467
ag341
aasg74
S'male'
p468
sg77
I00
sg78
g464
sg79
S'(He is absent today.)\n\nSession:1\t2\t3\t\t4\x0e\tRECESS\t\t5\t6\t7\t\t8\t\nStatus :7A \t11C \tlibrary \t7C \tSTAFF ROOM\t7C \t10C \tlibrary \t9A \t'
p469
sg81
(lp470
S'10'
p471
aS'11'
p472
aS'7'
p473
aS'8'
p474
aS'9'
p475
asg89
S'staff room'
p476
sg91
g101
sg92
S'library'
p477
sg94
g414
sg95
(lp478
g175
ag409
ag176
ag97
ag410
asg256
(lp479
S'economics'
p480
aS'hindi'
p481
aS'social science'
p482
asg260
(dp483
sbag10
aI4
aasg256
(lp484
S'Civics'
p485
aS'Music'
p486
asg260
(dp487
sbag336
ag102
ag182
asS'pres_teachers'
p488
(lp489
g4
ag102
ag336
ag182
asS'abs_teachers'
p490
(lp491
g98
ag178
asS'custom_proxies'
p492
(lp493
sS'removed_proxies'
p494
(lp495
(lp496
g4
ag98
ag106
aI0
aasS's_proxies'
p497
(lp498
g496
ag175
a(lp499
g336
ag98
ag106
aI0
aa(lp500
g182
ag98
ag106
aI0
aag409
a(lp501
g336
ag178
ag314
aI1
aag176
a(lp502
g102
ag178
ag316
aI3
aag97
a(lp503
g4
ag178
ag317
aI4
aag177
a(lp504
g336
ag178
ag108
aI6
aag410
a(lp505
g336
ag178
ag186
aI7
aa(lp506
g182
ag98
ag341
aI7
aag255
asS'gen_proxies'
p507
(lp508
g409
ag176
ag97
ag177
ag410
ag255
ag175
asS'clamoni'
p509
(dp510
g466
(lp511
I5
asg317
(lp512
I4
asg315
(lp513
I2
aI3
asg314
(lp514
I1
assS'teachers'
p515
(lp516
g98
ag4
ag182
ag178
ag102
ag336
asS'comp_proxies'
p517
(lp518
g496
ag409
ag176
ag97
ag177
ag410
ag255
asg95
(lp519
g175
ag409
ag176
ag97
ag177
ag410
ag255
asb.