(i__main__
Stats
p0
(dp1
S'proxy_teachers'
p2
(lp3
(i__main__
Teacher
p4
(dp5
S'status'
p6
S'He is most probably in class 4A.'
p7
sS'assigned'
p8
(dp9
I0
S'8b'
p10
sI1
I00
sI2
I00
sI3
I00
sI4
I00
sI5
I00
sI6
I00
sI7
I00
ssS'first_name'
p11
S'Rahul'
p12
sS'last_name'
p13
S'Yadav'
p14
sS'sched'
p15
S"Note: 'f' stands for free session and 'r' stands for recess.\n\nSession  : 1\t2\t3\t4\tr\t5\t6\t7\t8\t\n________________________________________________________________________________\n\nMonday   : f\t6B\t4A\t5C\tr\t1A\t2A\t3A\tf   <- today\nTuesday  : f\tf\t2C\t1A\tr\t3A\t5A\t1B\t4C\t\nWednesday: f\t1C\t4B\t4A\tr\t4C\t7B\tf\t3C\t\nThursday : f\t3B\t2A\t2B\tr\tf\t6A\t5C\t7C\t\nFriday   : f\t5A\t7B\t2C\tr\t3C\t6C\t5B\tf\t\nSaturday : f\t1C\t4B\t2B\tr\tf\t5B\t3B\t7A"
p16
sS'name'
p17
S'Rahul Yadav'
p18
sS'schedule'
p19
(lp20
(lp21
g10
aS'6b'
p22
aS'4a'
p23
aS'5c'
p24
aS'1a'
p25
aS'2a'
p26
aS'3a'
p27
aS'f'
p28
aa(lp29
S'f'
p30
aS'f'
p31
aS'2c'
p32
aS'1a'
p33
aS'3a'
p34
aS'5a'
p35
aS'1b'
p36
aS'4c'
p37
aa(lp38
S'f'
p39
aS'1c'
p40
aS'4b'
p41
aS'4a'
p42
aS'4c'
p43
aS'7b'
p44
aS'f'
p45
aS'3c'
p46
aa(lp47
S'f'
p48
aS'3b'
p49
aS'2a'
p50
aS'2b'
p51
aS'f'
p52
aS'6a'
p53
aS'5c'
p54
aS'7c'
p55
aa(lp56
S'f'
p57
aS'5a'
p58
aS'7b'
p59
aS'2c'
p60
aS'3c'
p61
aS'6c'
p62
aS'5b'
p63
aS'f'
p64
aa(lp65
S'f'
p66
aS'1c'
p67
aS'4b'
p68
aS'2b'
p69
aS'f'
p70
aS'5b'
p71
aS'3b'
p72
aS'7a'
p73
aasS'gender'
p74
S'male'
p75
sS'pres_pos'
p76
g23
sS'is_present'
p77
I01
sS'today_sched'
p78
g21
sS'tod_sched'
p79
S"Note:'*' denotes that Rahul is free in, or somewhere around music room.\n\nSession:1\t\t2\t3\x0e\t4\tRECESS\t\t5\t6\t7\t8\t\t\nStatus :8B(proxy) \t6B \t4A \t5C \tSTAFF ROOM\t1A \t2A \t3A \tmusic room* \t"
p80
sS'classes'
p81
(lp82
S'1'
p83
aS'2'
p84
aS'3'
p85
aS'4'
p86
aS'5'
p87
aS'6'
p88
asS'recess_pos'
p89
S'staff room'
p90
sS'saved_assignments'
p91
g9
sS'free_pos'
p92
S'music room'
p93
sS'title_name'
p94
g12
sS'proxies'
p95
(lp96
(lp97
g4
a(i__main__
Teacher
p98
(dp99
g6
S'He is absent today.'
p100
sg8
(dp101
I0
g4
sI1
I00
sI2
I00
sI3
(i__main__
Teacher
p102
(dp103
g6
S'She is most probably in class 11S.'
p104
sg8
(dp105
I0
I00
sI1
I00
sI2
I00
sI3
S'11c'
p106
sI4
I00
sI5
I00
sI6
I00
sI7
I00
ssg11
S'Sonia'
p107
sg13
S'Singh'
p108
sg15
S"Note: 'f' stands for free session and 'r' stands for recess.\n\nSession  : 1\t2\t3\t4\tr\t5\t6\t7\t8\t\n________________________________________________________________________________\n\nMonday   : 10A\t10A\t11S\tf\tr\t12S\t9C\t10C\tf   <- today\nTuesday  : 10A\t12S\t12S\t11S\tr\tf\tf\t10B\t11S\t\nWednesday: 11S\t11S\t10A\t10B\tr\tf\t9B\tf\tf\t\nThursday : 10C\t11S\t12S\tf\tr\tf\t10A\t12S\t12S\t\nFriday   : f\t11S\t9A\t12S\tr\t11S\tf\t12S\t12S\t\nSaturday : f\tf\t11S\t11S\tr\t12S\t12S\tf\tf"
p109
sg17
S'Sonia Singh'
p110
sg19
(lp111
(lp112
S'10a'
p113
aS'10a'
p114
aS'11s'
p115
ag106
aS'12s'
p116
aS'9c'
p117
aS'10c'
p118
aS'f'
p119
aa(lp120
S'10a'
p121
aS'12s'
p122
aS'12s'
p123
aS'11s'
p124
aS'f'
p125
aS'f'
p126
aS'10b'
p127
aS'11s'
p128
aa(lp129
S'11s'
p130
aS'11s'
p131
aS'10a'
p132
aS'10b'
p133
aS'f'
p134
aS'9b'
p135
aS'f'
p136
aS'f'
p137
aa(lp138
S'10c'
p139
aS'11s'
p140
aS'12s'
p141
aS'f'
p142
aS'f'
p143
aS'10a'
p144
aS'12s'
p145
aS'12s'
p146
aa(lp147
S'f'
p148
aS'11s'
p149
aS'9a'
p150
aS'12s'
p151
aS'11s'
p152
aS'f'
p153
aS'12s'
p154
aS'12s'
p155
aa(lp156
S'f'
p157
aS'f'
p158
aS'11s'
p159
aS'11s'
p160
aS'12s'
p161
aS'12s'
p162
aS'f'
p163
aS'f'
p164
aasg74
S'female'
p165
sg76
g115
sg77
I01
sg78
g112
sg79
S"Note:'*' denotes that Sonia is free in, or somewhere around chemistry lab.\n\nSession:1\t2\t3\x0e\t4\t\tRECESS\t\t5\t6\t7\t8\t\t\nStatus :10A \t10A \t11S \t11C(proxy) \tCHEMISTRY LAB\t12S \t9C \t10C \tchemistry lab* \t"
p166
sg81
(lp167
S'10'
p168
aS'11'
p169
aS'12'
p170
aS'9'
p171
asg89
S'chemistry lab'
p172
sg91
g105
sg92
S'chemistry lab'
p173
sg94
g110
sg95
(lp174
(lp175
g102
ag98
ag106
aI3
aasS'subjects'
p176
(lp177
S'chemistry'
p178
asS'history'
p179
(dp180
sbsI4
(i__main__
Teacher
p181
(dp182
g6
S'He is most probably in class 10A.'
p183
sg8
(dp184
I0
I00
sI1
I00
sI2
I00
sI3
I00
sI4
S'11c'
p185
sI5
I00
sI6
I00
sI7
I00
ssg11
S'Albert'
p186
sg13
S'Newton'
p187
sg15
S"Note: 'f' stands for free session and 'r' stands for recess.\n\nSession  : 1\t2\t3\t4\tr\t5\t6\t7\t8\t\n________________________________________________________________________________\n\nMonday   : 9A\t9B\t10A\t10B\tr\tf\t11S\t12S\tf   <- today\nTuesday  : 10B\t10A\tf\tf\tr\t9A\t12S\t12S\tf\t\nWednesday: 10B\t12S\t10B\tf\tr\tf\t9A\tf\t10A\t\nThursday : 11S\t10A\t10B\t11S\tr\t12S\t9B\tf\tf\t\nFriday   : f\t9A\t9B\t10A\tr\t10B\t11S\t10A\tf\t\nSaturday : f\t12S\t10A\t10B\tr\t9A\t9B\t12S\tf"
p188
sg17
S'Albert Newton'
p189
sg19
(lp190
(lp191
S'9a'
p192
aS'9b'
p193
aS'10a'
p194
aS'10b'
p195
ag185
aS'11s'
p196
aS'12s'
p197
aS'f'
p198
aa(lp199
S'10b'
p200
aS'10a'
p201
aS'f'
p202
aS'f'
p203
aS'9a'
p204
aS'12s'
p205
aS'12s'
p206
aS'f'
p207
aa(lp208
S'10b'
p209
aS'12s'
p210
aS'10b'
p211
aS'f'
p212
aS'f'
p213
aS'9a'
p214
aS'f'
p215
aS'10a'
p216
aa(lp217
S'11s'
p218
aS'10a'
p219
aS'10b'
p220
aS'11s'
p221
aS'12s'
p222
aS'9b'
p223
aS'f'
p224
aS'f'
p225
aa(lp226
S'f'
p227
aS'9a'
p228
aS'9b'
p229
aS'10a'
p230
aS'10b'
p231
aS'11s'
p232
aS'10a'
p233
aS'f'
p234
aa(lp235
S'f'
p236
aS'12s'
p237
aS'10a'
p238
aS'10b'
p239
aS'9a'
p240
aS'9b'
p241
aS'12s'
p242
aS'f'
p243
aasg74
S'male'
p244
sg76
g194
sg77
I01
sg78
g191
sg79
S"Note:'*' denotes that Albert is free in, or somewhere around physics lab.\n\nSession:1\t2\t3\x0e\t4\tRECESS\t5\t\t6\t7\t8\t\t\nStatus :9A \t9B \t10A \t10B \tGROUND\t11C(proxy) \t11S \t12S \tphysics lab* \t"
p245
sg81
(lp246
S'10'
p247
aS'11'
p248
aS'12'
p249
aS'9'
p250
asg89
S'ground'
p251
sg91
g184
sg92
S'physics lab'
p252
sg94
g186
sg95
(lp253
(lp254
g181
ag98
ag185
aI4
aasg176
(lp255
S' maths'
p256
aS'physics'
p257
asg179
(dp258
sbsI5
I00
sI6
I00
sI7
I00
ssg11
S'Mulayam'
p259
sg13
S'Modi'
p260
sg15
S"Note: 'f' stands for free session and 'r' stands for recess.\n\nSession  : 1\t2\t3\t4\tr\t5\t6\t7\t8\t\n________________________________________________________________________________\n\nMonday   : 8B\tf\t7C\t11C\tr\t11C\t7C\t7A\tf   <- today\nTuesday  : 8B\t11C\t9A\tf\tr\t8B\t7C\t7A\tf\t\nWednesday: 8B\t7C\tf\t10C\tr\tf\t11C\t7A\tf\t\nThursday : 8B\t8B\t11C\tf\tr\t7C\t7A\tf\t11C\t\nFriday   : 8B\tf\t7A\t7C\tr\tf\t8B\t11C\t11C\t\nSaturday : 7A\t11C\tf\t7C\tr\t7C\t10C\tf\t9A"
p261
sg17
S'Mulayam Modi'
p262
sg19
(lp263
(lp264
g10
aS'f'
p265
aS'7c'
p266
ag106
ag185
aS'7c'
p267
aS'7a'
p268
aS'f'
p269
aa(lp270
S'8b'
p271
aS'11c'
p272
aS'9a'
p273
aS'f'
p274
aS'8b'
p275
aS'7c'
p276
aS'7a'
p277
aS'f'
p278
aa(lp279
S'8b'
p280
aS'7c'
p281
aS'f'
p282
aS'10c'
p283
aS'f'
p284
aS'11c'
p285
aS'7a'
p286
aS'f'
p287
aa(lp288
S'8b'
p289
aS'8b'
p290
aS'11c'
p291
aS'f'
p292
aS'7c'
p293
aS'7a'
p294
aS'f'
p295
aS'11c'
p296
aa(lp297
S'8b'
p298
aS'f'
p299
aS'7a'
p300
aS'7c'
p301
aS'f'
p302
aS'8b'
p303
aS'11c'
p304
aS'11c'
p305
aa(lp306
S'7a'
p307
aS'11c'
p308
aS'f'
p309
aS'7c'
p310
aS'7c'
p311
aS'10c'
p312
aS'f'
p313
aS'9a'
p314
aasg74
S'male'
p315
sg77
I00
sg78
g264
sg79
S'(He is absent today.)\n\nSession:1\t2\t\t3\x0e\t4\tRECESS\t\t5\t6\t7\t8\t\t\nStatus :8B \tlibrary \t7C \t11C \tSTAFF ROOM\t11C \t7C \t7A \tlibrary \t'
p316
sg81
(lp317
S'10'
p318
aS'11'
p319
aS'7'
p320
aS'8'
p321
aS'9'
p322
asg89
S'staff room'
p323
sg91
g101
sg92
S'library'
p324
sg94
g259
sg95
(lp325
g97
ag175
ag254
asg176
(lp326
S'economics'
p327
aS'hindi'
p328
aS'social science'
p329
asg179
(dp330
sbag10
aI0
aasg176
(lp331
S'Civics'
p332
aS'Music'
p333
asg179
(dp334
sba(i__main__
Teacher
p335
(dp336
g6
S'He is most probably in class 6A.'
p337
sg8
(dp338
I0
I00
sI1
S'10b'
p339
sI2
I00
sI3
I00
sI4
I00
sI5
I00
sI6
I00
sI7
S'10a'
p340
ssg11
S'Narendra'
p341
sg13
S'Gandhi'
p342
sg15
S"Note: 'f' stands for free session and 'r' stands for recess.\n\nSession  : 1\t2\t3\t4\tr\t5\t6\t7\t8\t\n________________________________________________________________________________\n\nMonday   : 5A\tf\t6A\t7B\tr\t8A\t7A\t6A\tf   <- today\nTuesday  : 5A\t6A\tf\tf\tr\t5A\t6A\tf\t7B\t\nWednesday: 5A\t7A\t6A\tf\tr\t7B\t5B\tf\t6A\t\nThursday : f\t7B\tf\t3C\tr\t6A\t5A\tf\t7A\t\nFriday   : 5A\tf\t7C\t6A\tr\tf\t5A\tf\tf\t\nSaturday : f\t7B\t5A\tf\tr\t7A\t8A\tf\t6A"
p343
sg17
S'Narendra Gandhi'
p344
sg19
(lp345
(lp346
S'5a'
p347
ag339
aS'6a'
p348
aS'7b'
p349
aS'8a'
p350
aS'7a'
p351
aS'6a'
p352
ag340
aa(lp353
S'5a'
p354
aS'6a'
p355
aS'f'
p356
aS'f'
p357
aS'5a'
p358
aS'6a'
p359
aS'f'
p360
aS'7b'
p361
aa(lp362
S'5a'
p363
aS'7a'
p364
aS'6a'
p365
aS'f'
p366
aS'7b'
p367
aS'5b'
p368
aS'f'
p369
aS'6a'
p370
aa(lp371
S'f'
p372
aS'7b'
p373
aS'f'
p374
aS'3c'
p375
aS'6a'
p376
aS'5a'
p377
aS'f'
p378
aS'7a'
p379
aa(lp380
S'5a'
p381
aS'f'
p382
aS'7c'
p383
aS'6a'
p384
aS'f'
p385
aS'5a'
p386
aS'f'
p387
aS'f'
p388
aa(lp389
S'f'
p390
aS'7b'
p391
aS'5a'
p392
aS'f'
p393
aS'7a'
p394
aS'8a'
p395
aS'f'
p396
aS'6a'
p397
aasg74
S'male'
p398
sg76
g348
sg77
I01
sg78
g346
sg79
S'Session:1\t2\t\t3\x0e\t4\tRECESS\t5\t6\t7\t8\t\t\nStatus :5A \t10B(proxy) \t6A \t7B \tGROUND\t8A \t7A \t6A \t10A(proxy) \t'
p399
sg81
(lp400
S'5'
p401
aS'6'
p402
aS'7'
p403
aS'8'
p404
asg89
S'ground'
p405
sg91
g338
sg92
S'library'
p406
sg94
g341
sg95
(lp407
(lp408
g335
a(i__main__
Teacher
p409
(dp410
g6
S'She is absent today.'
p411
sg8
(dp412
I0
I00
sI1
g335
sI2
I00
sI3
I00
sI4
I00
sI5
I00
sI6
I00
sI7
g335
ssg11
S'Sonia'
p413
sg13
S'Yadav'
p414
sg15
S"Note: 'f' stands for free session and 'r' stands for recess.\n\nSession  : 1\t2\t3\t4\tr\t5\t6\t7\t8\t\n________________________________________________________________________________\n\nMonday   : 10B\t10B\t12S\t11S\tr\t11S\tf\t10A\t10A   <- today\nTuesday  : f\t11S\tf\t12S\tr\t12S\tf\t9B\t9B\t\nWednesday: 9C\t9C\t12S\tf\tr\t9B\t11S\tf\tf\t\nThursday : 12S\t12S\t11S\tf\tr\t9A\t9A\t10B\t11S\t\nFriday   : f\t10C\t10C\t9A\tr\tf\t12S\t11S\t11S\t\nSaturday : f\t11S\t12S\t12S\tr\t9C\tf\t10C\t10A"
p415
sg17
S'Sonia Yadav'
p416
sg19
(lp417
(lp418
S'10b'
p419
ag339
aS'12s'
p420
aS'11s'
p421
aS'11s'
p422
aS'f'
p423
aS'10a'
p424
ag340
aa(lp425
S'f'
p426
aS'11s'
p427
aS'f'
p428
aS'12s'
p429
aS'12s'
p430
aS'f'
p431
aS'9b'
p432
aS'9b'
p433
aa(lp434
S'9c'
p435
aS'9c'
p436
aS'12s'
p437
aS'f'
p438
aS'9b'
p439
aS'11s'
p440
aS'f'
p441
aS'f'
p442
aa(lp443
S'12s'
p444
aS'12s'
p445
aS'11s'
p446
aS'f'
p447
aS'9a'
p448
aS'9a'
p449
aS'10b'
p450
aS'11s'
p451
aa(lp452
S'f'
p453
aS'10c'
p454
aS'10c'
p455
aS'9a'
p456
aS'f'
p457
aS'12s'
p458
aS'11s'
p459
aS'11s'
p460
aa(lp461
S'f'
p462
aS'11s'
p463
aS'12s'
p464
aS'12s'
p465
aS'9c'
p466
aS'f'
p467
aS'10c'
p468
aS'10a'
p469
aasg74
S'female'
p470
sg77
I00
sg78
g418
sg79
S'(She is absent today.)\n\nSession:1\t2\t3\x0e\t4\tRECESS\t5\t6\t\t7\t8\t\nStatus :10B \t10B \t12S \t11S \tGROUND\t11S \tbiology lab \t10A \t10A \t'
p471
sg81
(lp472
S'10'
p473
aS'11'
p474
aS'12'
p475
aS'9'
p476
asg89
S'ground'
p477
sg91
g412
sg92
S'biology lab'
p478
sg94
g416
sg95
(lp479
g408
a(lp480
g335
ag409
ag340
aI7
aasg176
(lp481
S'biology'
p482
asg179
(dp483
sbag339
aI1
aag480
asg176
(lp484
S'Gujarati'
p485
aS'Spanish'
p486
asg179
(dp487
sbag102
ag181
asS'pres_teachers'
p488
(lp489
g335
ag181
ag102
ag4
asS'abs_teachers'
p490
(lp491
g98
ag409
asS'custom_proxies'
p492
(lp493
sS'removed_proxies'
p494
(lp495
sS's_proxies'
p496
(lp497
g97
a(lp498
g4
ag409
ag419
aI0
aag408
ag175
a(lp499
g102
ag409
ag421
aI3
aag254
a(lp500
g181
ag409
ag422
aI4
aag480
a(lp501
g102
ag409
ag340
aI7
aa(lp502
g181
ag409
ag340
aI7
aa(lp503
g4
ag409
ag340
aI7
aasS'gen_proxies'
p504
(lp505
g97
ag408
ag175
ag254
ag480
asS'clamoni'
p506
(dp507
g266
(lp508
I2
aI5
asg268
(lp509
I6
asg424
(lp510
I6
asg419
(lp511
I0
asg420
(lp512
I2
asg421
(lp513
I3
aI4
assS'teachers'
p514
(lp515
g98
ag4
ag181
ag409
ag335
ag102
asS'comp_proxies'
p516
(lp517
g97
ag408
ag175
ag254
ag480
asg95
(lp518
g97
ag408
ag175
ag254
ag480
asb.