(i__main__
Stats
p0
(dp1
S'proxy_teachers'
p2
(lp3
(i__main__
Teacher
p4
(dp5
S'status'
p6
S'He is most probably near staff room.'
p7
sS'assigned'
p8
(dp9
I0
I00
sI1
S'6b'
p10
sI2
I00
sI3
I00
sI4
I00
sI5
I00
sI6
I00
sI7
I00
ssS'first_name'
p11
S'Mulayam'
p12
sS'last_name'
p13
S'Modi'
p14
sS'sched'
p15
S"Note: 'f' stands for free session and 'r' stands for recess.\n\nSession  : 1\t2\t3\t4\tr\t5\t6\t7\t8\t\n________________________________________________________________________________\n\nMonday   : 8B\tf\t7C\t11C\tr\t11C\t7C\t7A\tf   <- today\nTuesday  : 8B\t11C\t9A\tf\tr\t8B\t7C\t7A\tf\t\nWednesday: 8B\t7C\tf\t10C\tr\tf\t11C\t7A\tf\t\nThursday : 8B\t8B\t11C\tf\tr\t7C\t7A\tf\t11C\t\nFriday   : 8B\tf\t7A\t7C\tr\tf\t8B\t11C\t11C\t\nSaturday : 7A\t11C\tf\t7C\tr\t7C\t10C\tf\t9A"
p16
sS'name'
p17
S'Mulayam Modi'
p18
sS'schedule'
p19
(lp20
(lp21
S'8b'
p22
ag10
aS'7c'
p23
aS'11c'
p24
aS'11c'
p25
aS'7c'
p26
aS'7a'
p27
aS'f'
p28
aa(lp29
S'8b'
p30
aS'11c'
p31
aS'9a'
p32
aS'f'
p33
aS'8b'
p34
aS'7c'
p35
aS'7a'
p36
aS'f'
p37
aa(lp38
S'8b'
p39
aS'7c'
p40
aS'f'
p41
aS'10c'
p42
aS'f'
p43
aS'11c'
p44
aS'7a'
p45
aS'f'
p46
aa(lp47
S'8b'
p48
aS'8b'
p49
aS'11c'
p50
aS'f'
p51
aS'7c'
p52
aS'7a'
p53
aS'f'
p54
aS'11c'
p55
aa(lp56
S'8b'
p57
aS'f'
p58
aS'7a'
p59
aS'7c'
p60
aS'f'
p61
aS'8b'
p62
aS'11c'
p63
aS'11c'
p64
aa(lp65
S'7a'
p66
aS'11c'
p67
aS'f'
p68
aS'7c'
p69
aS'7c'
p70
aS'10c'
p71
aS'f'
p72
aS'9a'
p73
aasS'gender'
p74
S'male'
p75
sS'pres_pos'
p76
S'r'
p77
sS'is_present'
p78
I01
sS'today_sched'
p79
g21
sS'tod_sched'
p80
S"Note:'*' denotes that Mulayam is free in, or somewhere around library.\n\nSession:1\t2\t\t3\t4\tRECESS\x0e\t\t5\t6\t7\t8\t\t\nStatus :8B \t6B(proxy) \t7C \t11C \tSTAFF ROOM\t11C \t7C \t7A \tlibrary* \t"
p81
sS'classes'
p82
(lp83
S'10'
p84
aS'11'
p85
aS'7'
p86
aS'8'
p87
aS'9'
p88
asS'recess_pos'
p89
S'staff room'
p90
sS'saved_assignments'
p91
g9
sS'free_pos'
p92
S'library'
p93
sS'title_name'
p94
g12
sS'proxies'
p95
(lp96
(lp97
g4
a(i__main__
Teacher
p98
(dp99
g6
S'He is absent today.'
p100
sg8
(dp101
I0
I00
sI1
g4
sI2
I00
sI3
I00
sI4
I00
sI5
(i__main__
Teacher
p102
(dp103
g6
S'She is most probably near ground.'
p104
sg8
(dp105
I0
I00
sI1
I00
sI2
I00
sI3
I00
sI4
I00
sI5
S'2a'
p106
sI6
I00
sI7
I00
ssg11
S'Sonia'
p107
sg13
S'Yadav'
p108
sg15
S"Note: 'f' stands for free session and 'r' stands for recess.\n\nSession  : 1\t2\t3\t4\tr\t5\t6\t7\t8\t\n________________________________________________________________________________\n\nMonday   : 10B\t10B\t12S\t11S\tr\t11S\tf\t10A\t10A   <- today\nTuesday  : f\t11S\tf\t12S\tr\t12S\tf\t9B\t9B\t\nWednesday: 9C\t9C\t12S\tf\tr\t9B\t11S\tf\tf\t\nThursday : 12S\t12S\t11S\tf\tr\t9A\t9A\t10B\t11S\t\nFriday   : f\t10C\t10C\t9A\tr\tf\t12S\t11S\t11S\t\nSaturday : f\t11S\t12S\t12S\tr\t9C\tf\t10C\t10A"
p109
sg17
S'Sonia Yadav'
p110
sg19
(lp111
(lp112
S'10b'
p113
aS'10b'
p114
aS'12s'
p115
aS'11s'
p116
aS'11s'
p117
ag106
aS'10a'
p118
aS'10a'
p119
aa(lp120
S'f'
p121
aS'11s'
p122
aS'f'
p123
aS'12s'
p124
aS'12s'
p125
aS'f'
p126
aS'9b'
p127
aS'9b'
p128
aa(lp129
S'9c'
p130
aS'9c'
p131
aS'12s'
p132
aS'f'
p133
aS'9b'
p134
aS'11s'
p135
aS'f'
p136
aS'f'
p137
aa(lp138
S'12s'
p139
aS'12s'
p140
aS'11s'
p141
aS'f'
p142
aS'9a'
p143
aS'9a'
p144
aS'10b'
p145
aS'11s'
p146
aa(lp147
S'f'
p148
aS'10c'
p149
aS'10c'
p150
aS'9a'
p151
aS'f'
p152
aS'12s'
p153
aS'11s'
p154
aS'11s'
p155
aa(lp156
S'f'
p157
aS'11s'
p158
aS'12s'
p159
aS'12s'
p160
aS'9c'
p161
aS'f'
p162
aS'10c'
p163
aS'10a'
p164
aasg74
S'female'
p165
sg76
g77
sg78
I01
sg79
g112
sg80
S'Session:1\t2\t3\t4\tRECESS\x0e\t5\t6\t\t7\t8\t\nStatus :10B \t10B \t12S \t11S \tGROUND\t11S \t2A(proxy) \t10A \t10A \t'
p166
sg82
(lp167
S'10'
p168
aS'11'
p169
aS'12'
p170
aS'9'
p171
asg89
S'ground'
p172
sg91
g105
sg92
S'biology lab'
p173
sg94
g110
sg95
(lp174
(lp175
g102
ag98
ag106
aI5
aasS'subjects'
p176
(lp177
S'biology'
p178
asS'history'
p179
(dp180
sbsI6
I00
sI7
I00
ssg11
S'Rahul'
p181
sg13
S'Yadav'
p182
sg15
S"Note: 'f' stands for free session and 'r' stands for recess.\n\nSession  : 1\t2\t3\t4\tr\t5\t6\t7\t8\t\n________________________________________________________________________________\n\nMonday   : f\t6B\t4A\t5C\tr\t1A\t2A\t3A\tf   <- today\nTuesday  : f\tf\t2C\t1A\tr\t3A\t5A\t1B\t4C\t\nWednesday: f\t1C\t4B\t4A\tr\t4C\t7B\tf\t3C\t\nThursday : f\t3B\t2A\t2B\tr\tf\t6A\t5C\t7C\t\nFriday   : f\t5A\t7B\t2C\tr\t3C\t6C\t5B\tf\t\nSaturday : f\t1C\t4B\t2B\tr\tf\t5B\t3B\t7A"
p183
sg17
S'Rahul Yadav'
p184
sg19
(lp185
(lp186
S'f'
p187
ag10
aS'4a'
p188
aS'5c'
p189
aS'1a'
p190
ag106
aS'3a'
p191
aS'f'
p192
aa(lp193
S'f'
p194
aS'f'
p195
aS'2c'
p196
aS'1a'
p197
aS'3a'
p198
aS'5a'
p199
aS'1b'
p200
aS'4c'
p201
aa(lp202
S'f'
p203
aS'1c'
p204
aS'4b'
p205
aS'4a'
p206
aS'4c'
p207
aS'7b'
p208
aS'f'
p209
aS'3c'
p210
aa(lp211
S'f'
p212
aS'3b'
p213
aS'2a'
p214
aS'2b'
p215
aS'f'
p216
aS'6a'
p217
aS'5c'
p218
aS'7c'
p219
aa(lp220
S'f'
p221
aS'5a'
p222
aS'7b'
p223
aS'2c'
p224
aS'3c'
p225
aS'6c'
p226
aS'5b'
p227
aS'f'
p228
aa(lp229
S'f'
p230
aS'1c'
p231
aS'4b'
p232
aS'2b'
p233
aS'f'
p234
aS'5b'
p235
aS'3b'
p236
aS'7a'
p237
aasg74
S'male'
p238
sg78
I00
sg79
g186
sg80
S'(He is absent today.)\n\nSession:1\t\t2\t3\t4\tRECESS\x0e\t\t5\t6\t7\t8\t\t\nStatus :music room \t6B \t4A \t5C \tSTAFF ROOM\t1A \t2A \t3A \tmusic room \t'
p239
sg82
(lp240
S'1'
p241
aS'2'
p242
aS'3'
p243
aS'4'
p244
aS'5'
p245
aS'6'
p246
asg89
S'staff room'
p247
sg91
g101
sg92
S'music room'
p248
sg94
g181
sg95
(lp249
g97
ag175
asg176
(lp250
S'Civics'
p251
aS'Music'
p252
asg179
(dp253
sbag10
aI1
aasg176
(lp254
S'economics'
p255
aS'hindi'
p256
aS'social science'
p257
asg179
(dp258
sba(i__main__
Teacher
p259
(dp260
g6
S'He is most probably near ground.'
p261
sg8
(dp262
I0
I00
sI1
S'10a'
p263
sI2
I00
sI3
I00
sI4
I00
sI5
I00
sI6
I00
sI7
I00
ssg11
S'Narendra'
p264
sg13
S'Gandhi'
p265
sg15
S"Note: 'f' stands for free session and 'r' stands for recess.\n\nSession  : 1\t2\t3\t4\tr\t5\t6\t7\t8\t\n________________________________________________________________________________\n\nMonday   : 5A\tf\t6A\t7B\tr\t8A\t7A\t6A\tf   <- today\nTuesday  : 5A\t6A\tf\tf\tr\t5A\t6A\tf\t7B\t\nWednesday: 5A\t7A\t6A\tf\tr\t7B\t5B\tf\t6A\t\nThursday : f\t7B\tf\t3C\tr\t6A\t5A\tf\t7A\t\nFriday   : 5A\tf\t7C\t6A\tr\tf\t5A\tf\tf\t\nSaturday : f\t7B\t5A\tf\tr\t7A\t8A\tf\t6A"
p266
sg17
S'Narendra Gandhi'
p267
sg19
(lp268
(lp269
S'5a'
p270
ag263
aS'6a'
p271
aS'7b'
p272
aS'8a'
p273
aS'7a'
p274
aS'6a'
p275
aS'f'
p276
aa(lp277
S'5a'
p278
aS'6a'
p279
aS'f'
p280
aS'f'
p281
aS'5a'
p282
aS'6a'
p283
aS'f'
p284
aS'7b'
p285
aa(lp286
S'5a'
p287
aS'7a'
p288
aS'6a'
p289
aS'f'
p290
aS'7b'
p291
aS'5b'
p292
aS'f'
p293
aS'6a'
p294
aa(lp295
S'f'
p296
aS'7b'
p297
aS'f'
p298
aS'3c'
p299
aS'6a'
p300
aS'5a'
p301
aS'f'
p302
aS'7a'
p303
aa(lp304
S'5a'
p305
aS'f'
p306
aS'7c'
p307
aS'6a'
p308
aS'f'
p309
aS'5a'
p310
aS'f'
p311
aS'f'
p312
aa(lp313
S'f'
p314
aS'7b'
p315
aS'5a'
p316
aS'f'
p317
aS'7a'
p318
aS'8a'
p319
aS'f'
p320
aS'6a'
p321
aasg74
S'male'
p322
sg76
g77
sg78
I01
sg79
g269
sg80
S"Note:'*' denotes that Narendra is free in, or somewhere around library.\n\nSession:1\t2\t\t3\t4\tRECESS\x0e\t5\t6\t7\t8\t\t\nStatus :5A \t10A(proxy) \t6A \t7B \tGROUND\t8A \t7A \t6A \tlibrary* \t"
p323
sg82
(lp324
S'5'
p325
aS'6'
p326
aS'7'
p327
aS'8'
p328
asg89
S'ground'
p329
sg91
g262
sg92
S'library'
p330
sg94
g264
sg95
(lp331
(lp332
g259
a(i__main__
Teacher
p333
(dp334
g6
S'She is absent today.'
p335
sg8
(dp336
I0
I00
sI1
g259
sI2
I00
sI3
I00
sI4
I00
sI5
I00
sI6
I00
sI7
I00
ssg11
S'Sonia'
p337
sg13
S'Singh'
p338
sg15
S"Note: 'f' stands for free session and 'r' stands for recess.\n\nSession  : 1\t2\t3\t4\tr\t5\t6\t7\t8\t\n________________________________________________________________________________\n\nMonday   : 10A\t10A\t11S\tf\tr\t12S\t9C\t10C\tf   <- today\nTuesday  : 10A\t12S\t12S\t11S\tr\tf\tf\t10B\t11S\t\nWednesday: 11S\t11S\t10A\t10B\tr\tf\t9B\tf\tf\t\nThursday : 10C\t11S\t12S\tf\tr\tf\t10A\t12S\t12S\t\nFriday   : f\t11S\t9A\t12S\tr\t11S\tf\t12S\t12S\t\nSaturday : f\tf\t11S\t11S\tr\t12S\t12S\tf\tf"
p339
sg17
S'Sonia Singh'
p340
sg19
(lp341
(lp342
S'10a'
p343
ag263
aS'11s'
p344
aS'f'
p345
aS'12s'
p346
aS'9c'
p347
aS'10c'
p348
aS'f'
p349
aa(lp350
S'10a'
p351
aS'12s'
p352
aS'12s'
p353
aS'11s'
p354
aS'f'
p355
aS'f'
p356
aS'10b'
p357
aS'11s'
p358
aa(lp359
S'11s'
p360
aS'11s'
p361
aS'10a'
p362
aS'10b'
p363
aS'f'
p364
aS'9b'
p365
aS'f'
p366
aS'f'
p367
aa(lp368
S'10c'
p369
aS'11s'
p370
aS'12s'
p371
aS'f'
p372
aS'f'
p373
aS'10a'
p374
aS'12s'
p375
aS'12s'
p376
aa(lp377
S'f'
p378
aS'11s'
p379
aS'9a'
p380
aS'12s'
p381
aS'11s'
p382
aS'f'
p383
aS'12s'
p384
aS'12s'
p385
aa(lp386
S'f'
p387
aS'f'
p388
aS'11s'
p389
aS'11s'
p390
aS'12s'
p391
aS'12s'
p392
aS'f'
p393
aS'f'
p394
aasg74
S'female'
p395
sg78
I00
sg79
g342
sg80
S'(She is absent today.)\n\nSession:1\t2\t3\t4\t\tRECESS\x0e\t\t5\t6\t7\t8\t\t\nStatus :10A \t10A \t11S \tchemistry lab \tCHEMISTRY LAB\t12S \t9C \t10C \tchemistry lab \t'
p396
sg82
(lp397
S'10'
p398
aS'11'
p399
aS'12'
p400
aS'9'
p401
asg89
S'chemistry lab'
p402
sg91
g336
sg92
S'chemistry lab'
p403
sg94
g340
sg95
(lp404
g332
asg176
(lp405
S'chemistry'
p406
asg179
(dp407
sbag263
aI1
aasg176
(lp408
S'Gujarati'
p409
aS'Spanish'
p410
asg179
(dp411
sbag102
asS'pres_teachers'
p412
(lp413
g4
ag259
ag102
asS'abs_teachers'
p414
(lp415
g98
ag333
a(i__main__
Teacher
p416
(dp417
g6
S'He is absent today.'
p418
sg8
(dp419
I0
I00
sI1
I00
sI2
I00
sI3
I00
sI4
I00
sI5
I00
sI6
I00
sI7
I00
ssg11
S'Albert'
p420
sg13
S'Newton'
p421
sg15
S"Note: 'f' stands for free session and 'r' stands for recess.\n\nSession  : 1\t2\t3\t4\tr\t5\t6\t7\t8\t\n________________________________________________________________________________\n\nMonday   : 9A\t9B\t10A\t10B\tr\tf\t11S\t12S\tf   <- today\nTuesday  : 10B\t10A\tf\tf\tr\t9A\t12S\t12S\tf\t\nWednesday: 10B\t12S\t10B\tf\tr\tf\t9A\tf\t10A\t\nThursday : 11S\t10A\t10B\t11S\tr\t12S\t9B\tf\tf\t\nFriday   : f\t9A\t9B\t10A\tr\t10B\t11S\t10A\tf\t\nSaturday : f\t12S\t10A\t10B\tr\t9A\t9B\t12S\tf"
p422
sg17
S'Albert Newton'
p423
sg19
(lp424
(lp425
S'9a'
p426
aS'9b'
p427
aS'10a'
p428
aS'10b'
p429
aS'f'
p430
aS'11s'
p431
aS'12s'
p432
aS'f'
p433
aa(lp434
S'10b'
p435
aS'10a'
p436
aS'f'
p437
aS'f'
p438
aS'9a'
p439
aS'12s'
p440
aS'12s'
p441
aS'f'
p442
aa(lp443
S'10b'
p444
aS'12s'
p445
aS'10b'
p446
aS'f'
p447
aS'f'
p448
aS'9a'
p449
aS'f'
p450
aS'10a'
p451
aa(lp452
S'11s'
p453
aS'10a'
p454
aS'10b'
p455
aS'11s'
p456
aS'12s'
p457
aS'9b'
p458
aS'f'
p459
aS'f'
p460
aa(lp461
S'f'
p462
aS'9a'
p463
aS'9b'
p464
aS'10a'
p465
aS'10b'
p466
aS'11s'
p467
aS'10a'
p468
aS'f'
p469
aa(lp470
S'f'
p471
aS'12s'
p472
aS'10a'
p473
aS'10b'
p474
aS'9a'
p475
aS'9b'
p476
aS'12s'
p477
aS'f'
p478
aasg74
S'male'
p479
sg78
I00
sg79
g425
sg80
S'(He is absent today.)\n\nSession:1\t2\t3\t4\tRECESS\x0e\t5\t\t6\t7\t8\t\t\nStatus :9A \t9B \t10A \t10B \tGROUND\tphysics lab \t11S \t12S \tphysics lab \t'
p480
sg82
(lp481
S'10'
p482
aS'11'
p483
aS'12'
p484
aS'9'
p485
asg89
S'ground'
p486
sg91
g419
sg92
S'physics lab'
p487
sg94
g420
sg95
(lp488
sg176
(lp489
S' maths'
p490
aS'physics'
p491
asg179
(dp492
sbasS'custom_proxies'
p493
(lp494
sS'removed_proxies'
p495
(lp496
sS's_proxies'
p497
(lp498
g97
a(lp499
g4
ag333
ag263
aI1
aa(lp500
g4
ag416
ag427
aI1
aa(lp501
g259
ag98
ag10
aI1
aag332
a(lp502
g259
ag416
ag427
aI1
aag175
a(lp503
g102
ag416
ag431
aI5
aa(lp504
g102
ag333
ag347
aI5
aasS'gen_proxies'
p505
(lp506
g97
ag332
ag175
asS'clamoni'
p507
(dp508
g427
(lp509
I1
asg426
(lp510
I0
asg348
(lp511
I6
asg347
(lp512
I5
asg343
(lp513
I0
aI2
asg190
(lp514
I4
asg429
(lp515
I3
asg346
(lp516
I4
aI6
asg344
(lp517
I2
aI5
asg191
(lp518
I6
asg189
(lp519
I3
asg188
(lp520
I2
assS'teachers'
p521
(lp522
g102
ag416
ag259
ag333
ag98
ag4
asS'comp_proxies'
p523
(lp524
g97
ag332
ag175
asg95
(lp525
g97
ag332
ag175
asb.