(i__main__
Stats
p0
(dp1
S'proxy_teachers'
p2
(lp3
(i__main__
Teacher
p4
(dp5
S'status'
p6
S'He is most probably in class 10A.'
p7
sS'assigned'
p8
(dp9
I0
I00
sI1
I00
sI2
I00
sI3
I00
sI4
S'8a'
p10
sI5
I00
sI6
I00
sI7
S'10a'
p11
ssS'first_name'
p12
S'Albert'
p13
sS'last_name'
p14
S'Newton'
p15
sS'sched'
p16
S"Note: 'f' stands for free session and 'r' stands for recess.\n\nSession  : 1\t2\t3\t4\tr\t5\t6\t7\t8\t\n________________________________________________________________________________\n\nMonday   : 9A\t9B\t10A\t10B\tr\tf\t11S\t12S\tf   <- today\nTuesday  : 10B\t10A\tf\tf\tr\t9A\t12S\t12S\tf\t\nWednesday: 10B\t12S\t10B\tf\tr\tf\t9A\tf\t10A\t\nThursday : 11S\t10A\t10B\t11S\tr\t12S\t9B\tf\tf\t\nFriday   : f\t9A\t9B\t10A\tr\t10B\t11S\t10A\tf\t\nSaturday : f\t12S\t10A\t10B\tr\t9A\t9B\t12S\tf"
p17
sS'name'
p18
S'Albert Newton'
p19
sS'schedule'
p20
(lp21
(lp22
S'9a'
p23
aS'9b'
p24
aS'10a'
p25
aS'10b'
p26
ag10
aS'11s'
p27
aS'12s'
p28
ag11
aa(lp29
S'10b'
p30
aS'10a'
p31
aS'f'
p32
aS'f'
p33
aS'9a'
p34
aS'12s'
p35
aS'12s'
p36
aS'f'
p37
aa(lp38
S'10b'
p39
aS'12s'
p40
aS'10b'
p41
aS'f'
p42
aS'f'
p43
aS'9a'
p44
aS'f'
p45
aS'10a'
p46
aa(lp47
S'11s'
p48
aS'10a'
p49
aS'10b'
p50
aS'11s'
p51
aS'12s'
p52
aS'9b'
p53
aS'f'
p54
aS'f'
p55
aa(lp56
S'f'
p57
aS'9a'
p58
aS'9b'
p59
aS'10a'
p60
aS'10b'
p61
aS'11s'
p62
aS'10a'
p63
aS'f'
p64
aa(lp65
S'f'
p66
aS'12s'
p67
aS'10a'
p68
aS'10b'
p69
aS'9a'
p70
aS'9b'
p71
aS'12s'
p72
aS'f'
p73
aasS'gender'
p74
S'male'
p75
sS'pres_pos'
p76
g11
sS'is_present'
p77
I01
sS'today_sched'
p78
g22
sS'tod_sched'
p79
S'Session : 1\t2\t3\t4\tRECESS\t5\t\t6\t7\t8\x0e\t\t\nPosition: 9A \t9B \t10A \t10B \tGROUND\t8A(proxy) \t11S \t12S \t10A(proxy) \t'
p80
sS'classes'
p81
(lp82
S'10'
p83
aS'11'
p84
aS'12'
p85
aS'9'
p86
asS'recess_pos'
p87
S'ground'
p88
sS'saved_assignments'
p89
g9
sS'free_pos'
p90
S'physics lab'
p91
sS'title_name'
p92
g13
sS'proxies'
p93
(lp94
(lp95
g4
a(i__main__
Teacher
p96
(dp97
g6
S'He is absent today.'
p98
sg8
(dp99
I0
(i__main__
Teacher
p100
(dp101
g6
S'He is most probably near music room.'
p102
sg8
(dp103
I0
S'5a'
p104
sI1
I00
sI2
I00
sI3
I00
sI4
I00
sI5
I00
sI6
I00
sI7
I00
ssg12
S'Rahul'
p105
sg14
S'Yadav'
p106
sg16
S"Note: 'f' stands for free session and 'r' stands for recess.\n\nSession  : 1\t2\t3\t4\tr\t5\t6\t7\t8\t\n________________________________________________________________________________\n\nMonday   : f\t6B\t4A\t5C\tr\t1A\t2A\t3A\tf   <- today\nTuesday  : f\tf\t2C\t1A\tr\t3A\t5A\t1B\t4C\t\nWednesday: f\t1C\t4B\t4A\tr\t4C\t7B\tf\t3C\t\nThursday : f\t3B\t2A\t2B\tr\tf\t6A\t5C\t7C\t\nFriday   : f\t5A\t7B\t2C\tr\t3C\t6C\t5B\tf\t\nSaturday : f\t1C\t4B\t2B\tr\tf\t5B\t3B\t7A"
p107
sg18
S'Rahul Yadav'
p108
sg20
(lp109
(lp110
g104
aS'6b'
p111
aS'4a'
p112
aS'5c'
p113
aS'1a'
p114
aS'2a'
p115
aS'3a'
p116
aS'f'
p117
aa(lp118
S'f'
p119
aS'f'
p120
aS'2c'
p121
aS'1a'
p122
aS'3a'
p123
aS'5a'
p124
aS'1b'
p125
aS'4c'
p126
aa(lp127
S'f'
p128
aS'1c'
p129
aS'4b'
p130
aS'4a'
p131
aS'4c'
p132
aS'7b'
p133
aS'f'
p134
aS'3c'
p135
aa(lp136
S'f'
p137
aS'3b'
p138
aS'2a'
p139
aS'2b'
p140
aS'f'
p141
aS'6a'
p142
aS'5c'
p143
aS'7c'
p144
aa(lp145
S'f'
p146
aS'5a'
p147
aS'7b'
p148
aS'2c'
p149
aS'3c'
p150
aS'6c'
p151
aS'5b'
p152
aS'f'
p153
aa(lp154
S'f'
p155
aS'1c'
p156
aS'4b'
p157
aS'2b'
p158
aS'f'
p159
aS'5b'
p160
aS'3b'
p161
aS'7a'
p162
aasg74
S'male'
p163
sg76
g117
sg77
I01
sg78
g110
sg79
S"Note:'*' denotes that Rahul is free in, or somewhere around music room.\n\nSession : 1\t\t2\t3\t4\tRECESS\t\t5\t6\t7\t8\x0e\t\t\nPosition: 5A(proxy) \t6B \t4A \t5C \tSTAFF ROOM\t1A \t2A \t3A \tmusic room* \t"
p164
sg81
(lp165
S'1'
p166
aS'2'
p167
aS'3'
p168
aS'4'
p169
aS'5'
p170
aS'6'
p171
asg87
S'staff room'
p172
sg89
g103
sg90
S'music room'
p173
sg92
g105
sg93
(lp174
(lp175
g100
ag96
ag104
aI0
aasS'subjects'
p176
(lp177
S'Civics'
p178
aS'Music'
p179
asS'history'
p180
(dp181
sbsI1
I00
sI2
I00
sI3
I00
sI4
g4
sI5
I00
sI6
I00
sI7
I00
ssg12
S'Narendra'
p182
sg14
S'Gandhi'
p183
sg16
S"Note: 'f' stands for free session and 'r' stands for recess.\n\nSession  : 1\t2\t3\t4\tr\t5\t6\t7\t8\t\n________________________________________________________________________________\n\nMonday   : 5A\tf\t6A\t7B\tr\t8A\t7A\t6A\tf   <- today\nTuesday  : 5A\t6A\tf\tf\tr\t5A\t6A\tf\t7B\t\nWednesday: 5A\t7A\t6A\tf\tr\t7B\t5B\tf\t6A\t\nThursday : f\t7B\tf\t3C\tr\t6A\t5A\tf\t7A\t\nFriday   : 5A\tf\t7C\t6A\tr\tf\t5A\tf\tf\t\nSaturday : f\t7B\t5A\tf\tr\t7A\t8A\tf\t6A"
p184
sg18
S'Narendra Gandhi'
p185
sg20
(lp186
(lp187
g104
aS'f'
p188
aS'6a'
p189
aS'7b'
p190
ag10
aS'7a'
p191
aS'6a'
p192
aS'f'
p193
aa(lp194
S'5a'
p195
aS'6a'
p196
aS'f'
p197
aS'f'
p198
aS'5a'
p199
aS'6a'
p200
aS'f'
p201
aS'7b'
p202
aa(lp203
S'5a'
p204
aS'7a'
p205
aS'6a'
p206
aS'f'
p207
aS'7b'
p208
aS'5b'
p209
aS'f'
p210
aS'6a'
p211
aa(lp212
S'f'
p213
aS'7b'
p214
aS'f'
p215
aS'3c'
p216
aS'6a'
p217
aS'5a'
p218
aS'f'
p219
aS'7a'
p220
aa(lp221
S'5a'
p222
aS'f'
p223
aS'7c'
p224
aS'6a'
p225
aS'f'
p226
aS'5a'
p227
aS'f'
p228
aS'f'
p229
aa(lp230
S'f'
p231
aS'7b'
p232
aS'5a'
p233
aS'f'
p234
aS'7a'
p235
aS'8a'
p236
aS'f'
p237
aS'6a'
p238
aasg74
S'male'
p239
sg77
I00
sg78
g187
sg79
S'Session : 1\t2\t\t3\t4\tRECESS\t5\t6\t7\t8\x0e\t\t\nPosition: 5A \tlibrary \t6A \t7B \tGROUND\t8A \t7A \t6A \tlibrary \t'
p240
sg81
(lp241
S'5'
p242
aS'6'
p243
aS'7'
p244
aS'8'
p245
asg87
S'ground'
p246
sg89
g99
sg90
S'library'
p247
sg92
g182
sg93
(lp248
g95
ag175
asg176
(lp249
S'Gujarati'
p250
aS'Spanish'
p251
asg180
(dp252
sbag10
aI4
aa(lp253
g4
a(i__main__
Teacher
p254
(dp255
g6
S'She is absent today.'
p256
sg8
(dp257
I0
I00
sI1
(i__main__
Teacher
p258
(dp259
g6
S'He is most probably near library.'
p260
sg8
(dp261
I0
I00
sI1
S'10b'
p262
sI2
I00
sI3
I00
sI4
I00
sI5
I00
sI6
I00
sI7
I00
ssg12
S'Mulayam'
p263
sg14
S'Modi'
p264
sg16
S"Note: 'f' stands for free session and 'r' stands for recess.\n\nSession  : 1\t2\t3\t4\tr\t5\t6\t7\t8\t\n________________________________________________________________________________\n\nMonday   : 8B\tf\t7C\t11C\tr\t11C\t7C\t7A\tf   <- today\nTuesday  : 8B\t11C\t9A\tf\tr\t8B\t7C\t7A\tf\t\nWednesday: 8B\t7C\tf\t10C\tr\tf\t11C\t7A\tf\t\nThursday : 8B\t8B\t11C\tf\tr\t7C\t7A\tf\t11C\t\nFriday   : 8B\tf\t7A\t7C\tr\tf\t8B\t11C\t11C\t\nSaturday : 7A\t11C\tf\t7C\tr\t7C\t10C\tf\t9A"
p265
sg18
S'Mulayam Modi'
p266
sg20
(lp267
(lp268
S'8b'
p269
ag262
aS'7c'
p270
aS'11c'
p271
aS'11c'
p272
aS'7c'
p273
aS'7a'
p274
aS'f'
p275
aa(lp276
S'8b'
p277
aS'11c'
p278
aS'9a'
p279
aS'f'
p280
aS'8b'
p281
aS'7c'
p282
aS'7a'
p283
aS'f'
p284
aa(lp285
S'8b'
p286
aS'7c'
p287
aS'f'
p288
aS'10c'
p289
aS'f'
p290
aS'11c'
p291
aS'7a'
p292
aS'f'
p293
aa(lp294
S'8b'
p295
aS'8b'
p296
aS'11c'
p297
aS'f'
p298
aS'7c'
p299
aS'7a'
p300
aS'f'
p301
aS'11c'
p302
aa(lp303
S'8b'
p304
aS'f'
p305
aS'7a'
p306
aS'7c'
p307
aS'f'
p308
aS'8b'
p309
aS'11c'
p310
aS'11c'
p311
aa(lp312
S'7a'
p313
aS'11c'
p314
aS'f'
p315
aS'7c'
p316
aS'7c'
p317
aS'10c'
p318
aS'f'
p319
aS'9a'
p320
aasg74
S'male'
p321
sg76
g275
sg77
I01
sg78
g268
sg79
S"Note:'*' denotes that Mulayam is free in, or somewhere around library.\n\nSession : 1\t2\t\t3\t4\tRECESS\t\t5\t6\t7\t8\x0e\t\t\nPosition: 8B \t10B(proxy) \t7C \t11C \tSTAFF ROOM\t11C \t7C \t7A \tlibrary* \t"
p322
sg81
(lp323
S'10'
p324
aS'11'
p325
aS'7'
p326
aS'8'
p327
aS'9'
p328
asg87
S'staff room'
p329
sg89
g261
sg90
S'library'
p330
sg92
g263
sg93
(lp331
(lp332
g258
ag254
ag262
aI1
aasg176
(lp333
S'economics'
p334
aS'hindi'
p335
aS'social science'
p336
asg180
(dp337
sbsI2
I00
sI3
I00
sI4
I00
sI5
I00
sI6
I00
sI7
g4
ssg12
S'Sonia'
p338
sg14
S'Yadav'
p339
sg16
S"Note: 'f' stands for free session and 'r' stands for recess.\n\nSession  : 1\t2\t3\t4\tr\t5\t6\t7\t8\t\n________________________________________________________________________________\n\nMonday   : 10B\t10B\t12S\t11S\tr\t11S\tf\t10A\t10A   <- today\nTuesday  : f\t11S\tf\t12S\tr\t12S\tf\t9B\t9B\t\nWednesday: 9C\t9C\t12S\tf\tr\t9B\t11S\tf\tf\t\nThursday : 12S\t12S\t11S\tf\tr\t9A\t9A\t10B\t11S\t\nFriday   : f\t10C\t10C\t9A\tr\tf\t12S\t11S\t11S\t\nSaturday : f\t11S\t12S\t12S\tr\t9C\tf\t10C\t10A"
p340
sg18
S'Sonia Yadav'
p341
sg20
(lp342
(lp343
S'10b'
p344
ag262
aS'12s'
p345
aS'11s'
p346
aS'11s'
p347
aS'f'
p348
aS'10a'
p349
ag11
aa(lp350
S'f'
p351
aS'11s'
p352
aS'f'
p353
aS'12s'
p354
aS'12s'
p355
aS'f'
p356
aS'9b'
p357
aS'9b'
p358
aa(lp359
S'9c'
p360
aS'9c'
p361
aS'12s'
p362
aS'f'
p363
aS'9b'
p364
aS'11s'
p365
aS'f'
p366
aS'f'
p367
aa(lp368
S'12s'
p369
aS'12s'
p370
aS'11s'
p371
aS'f'
p372
aS'9a'
p373
aS'9a'
p374
aS'10b'
p375
aS'11s'
p376
aa(lp377
S'f'
p378
aS'10c'
p379
aS'10c'
p380
aS'9a'
p381
aS'f'
p382
aS'12s'
p383
aS'11s'
p384
aS'11s'
p385
aa(lp386
S'f'
p387
aS'11s'
p388
aS'12s'
p389
aS'12s'
p390
aS'9c'
p391
aS'f'
p392
aS'10c'
p393
aS'10a'
p394
aasg74
S'female'
p395
sg77
I00
sg78
g343
sg79
S'Session : 1\t2\t3\t4\tRECESS\t5\t6\t\t7\t8\x0e\t\nPosition: 10B \t10B \t12S \t11S \tGROUND\t11S \tbiology lab \t10A \t10A \t'
p396
sg81
(lp397
S'10'
p398
aS'11'
p399
aS'12'
p400
aS'9'
p401
asg87
S'ground'
p402
sg89
g257
sg90
S'biology lab'
p403
sg92
g341
sg93
(lp404
g253
ag332
asg176
(lp405
S'biology'
p406
asg180
(dp407
sbag11
aI7
aasg176
(lp408
S' maths'
p409
aS'physics'
p410
asg180
(dp411
sbag100
ag258
asS'pres_teachers'
p412
(lp413
g4
ag100
ag258
asS'abs_teachers'
p414
(lp415
g96
ag254
a(i__main__
Teacher
p416
(dp417
g6
S'She is absent today.'
p418
sg8
(dp419
I0
I00
sI1
I00
sI2
I00
sI3
I00
sI4
I00
sI5
I00
sI6
I00
sI7
I00
ssg12
S'Sonia'
p420
sg14
S'Singh'
p421
sg16
S"Note: 'f' stands for free session and 'r' stands for recess.\n\nSession  : 1\t2\t3\t4\tr\t5\t6\t7\t8\t\n________________________________________________________________________________\n\nMonday   : 10A\t10A\t11S\tf\tr\t12S\t9C\t10C\tf   <- today\nTuesday  : 10A\t12S\t12S\t11S\tr\tf\tf\t10B\t11S\t\nWednesday: 11S\t11S\t10A\t10B\tr\tf\t9B\tf\tf\t\nThursday : 10C\t11S\t12S\tf\tr\tf\t10A\t12S\t12S\t\nFriday   : f\t11S\t9A\t12S\tr\t11S\tf\t12S\t12S\t\nSaturday : f\tf\t11S\t11S\tr\t12S\t12S\tf\tf"
p422
sg18
S'Sonia Singh'
p423
sg20
(lp424
(lp425
S'10a'
p426
aS'10a'
p427
aS'11s'
p428
aS'f'
p429
aS'12s'
p430
aS'9c'
p431
aS'10c'
p432
aS'f'
p433
aa(lp434
S'10a'
p435
aS'12s'
p436
aS'12s'
p437
aS'11s'
p438
aS'f'
p439
aS'f'
p440
aS'10b'
p441
aS'11s'
p442
aa(lp443
S'11s'
p444
aS'11s'
p445
aS'10a'
p446
aS'10b'
p447
aS'f'
p448
aS'9b'
p449
aS'f'
p450
aS'f'
p451
aa(lp452
S'10c'
p453
aS'11s'
p454
aS'12s'
p455
aS'f'
p456
aS'f'
p457
aS'10a'
p458
aS'12s'
p459
aS'12s'
p460
aa(lp461
S'f'
p462
aS'11s'
p463
aS'9a'
p464
aS'12s'
p465
aS'11s'
p466
aS'f'
p467
aS'12s'
p468
aS'12s'
p469
aa(lp470
S'f'
p471
aS'f'
p472
aS'11s'
p473
aS'11s'
p474
aS'12s'
p475
aS'12s'
p476
aS'f'
p477
aS'f'
p478
aasg74
S'female'
p479
sg77
I00
sg78
g425
sg79
S'Session : 1\t2\t3\t4\t\tRECESS\t\t5\t6\t7\t8\x0e\t\t\nPosition: 10A \t10A \t11S \tchemistry lab \tCHEMISTRY LAB\t12S \t9C \t10C \tchemistry lab \t'
p480
sg81
(lp481
S'10'
p482
aS'11'
p483
aS'12'
p484
aS'9'
p485
asg87
S'chemistry lab'
p486
sg89
g419
sg90
S'chemistry lab'
p487
sg92
g423
sg93
(lp488
sg176
(lp489
S'chemistry'
p490
asg180
(dp491
sbasS'custom_proxies'
p492
(lp493
sS'removed_proxies'
p494
(lp495
sS's_proxies'
p496
(lp497
g175
a(lp498
g100
ag254
ag344
aI0
aa(lp499
g100
ag416
ag426
aI0
aag332
a(lp500
g258
ag416
ag427
aI1
aag95
a(lp501
g4
ag416
ag430
aI4
aa(lp502
g4
ag254
ag347
aI4
aag253
a(lp503
g258
ag254
ag11
aI7
aa(lp504
g100
ag254
ag11
aI7
aasS'gen_proxies'
p505
(lp506
g95
ag175
ag253
ag332
asS'clamoni'
p507
(dp508
g189
(lp509
I2
aI6
asg349
(lp510
I6
aI0
aI1
asg190
(lp511
I3
asg191
(lp512
I5
asg344
(lp513
I0
asg432
(lp514
I6
asg431
(lp515
I5
asg345
(lp516
I2
aI4
asg346
(lp517
I3
aI4
aI2
assS'teachers'
p518
(lp519
g258
ag100
ag4
ag254
ag96
ag416
asS'comp_proxies'
p520
(lp521
g95
ag175
ag253
ag332
asg93
(lp522
g175
ag332
ag95
ag253
asb.