(i__main__
Stats
p0
(dp1
S'proxy_teachers'
p2
(lp3
(i__main__
Teacher
p4
(dp5
S'status'
p6
S'She is most probably in class 9C.'
p7
sS'assigned'
p8
(dp9
I0
I00
sI1
I00
sI2
I00
sI3
S'10c'
p10
sI4
I00
sI5
I00
sI6
S'7a'
p11
sI7
I00
ssS'first_name'
p12
S'Sonia'
p13
sS'last_name'
p14
S'Yadav'
p15
sS'sched'
p16
S"Note: 'f' stands for free session and 'r' stands for recess.\n\nSession  : 1\t2\t3\t4\tr\t5\t6\t7\t8\t\n________________________________________________________________________________\n\nMonday   : 10B\t10B\t12S\t11S\tr\t11S\tf\t10A\t10A\t\nTuesday  : f\t11S\tf\t12S\tr\t12S\tf\t9B\t9B\t\nWednesday: 9C\t9C\t12S\tf\tr\t9B\t11S\tf\tf\t\nThursday : 12S\t12S\t11S\tf\tr\t9A\t9A\t10B\t11S\t\nFriday   : f\t10C\t10C\t9A\tr\tf\t12S\t11S\t11S\t\nSaturday : f\t11S\t12S\t12S\tr\t9C\tf\t10C\t10A"
p17
sS'name'
p18
S'Sonia Yadav'
p19
sS'schedule'
p20
(lp21
(lp22
S'10b'
p23
aS'10b'
p24
aS'12s'
p25
aS'11s'
p26
aS'11s'
p27
aS'f'
p28
aS'10a'
p29
aS'10a'
p30
aa(lp31
S'f'
p32
aS'11s'
p33
aS'f'
p34
aS'12s'
p35
aS'12s'
p36
aS'f'
p37
aS'9b'
p38
aS'9b'
p39
aa(lp40
S'9c'
p41
aS'9c'
p42
aS'12s'
p43
aS'f'
p44
aS'9b'
p45
aS'11s'
p46
aS'f'
p47
aS'f'
p48
aa(lp49
S'12s'
p50
aS'12s'
p51
aS'11s'
p52
aS'f'
p53
aS'9a'
p54
aS'9a'
p55
aS'10b'
p56
aS'11s'
p57
aa(lp58
S'f'
p59
aS'10c'
p60
aS'10c'
p61
aS'9a'
p62
aS'f'
p63
aS'12s'
p64
aS'11s'
p65
aS'11s'
p66
aa(lp67
S'f'
p68
aS'11s'
p69
aS'12s'
p70
aS'12s'
p71
aS'9c'
p72
aS'f'
p73
aS'10c'
p74
aS'10a'
p75
aasS'gender'
p76
S'female'
p77
sS'is_present'
p78
I01
sS'today_sched'
p79
(lp80
g41
ag42
ag43
ag10
ag45
ag46
ag11
ag48
asS'tod_sched'
p81
S"Note:'*' denotes that Sonia is free in, or somewhere around biology lab.\n\nSession : 1\x0e\t2\t3\t4\t\tRECESS\t5\t6\t7\t\t8\t\t\nPosition: 9C \t9C \t12S \t10C(proxy) \tGROUND\t9B \t11S \t7A(proxy) \tbiology lab* \t"
p82
sS'classes'
p83
(lp84
S'10'
p85
aS'11'
p86
aS'12'
p87
aS'9'
p88
asS'recess_pos'
p89
S'ground'
p90
sS'pres_pos'
p91
g41
sS'free_pos'
p92
S'biology lab'
p93
sS'title_name'
p94
g19
sS'proxies'
p95
(lp96
(lp97
g4
a(i__main__
Teacher
p98
(dp99
g6
S'He is absent today.'
p100
sg8
(dp101
I0
(i__main__
Teacher
p102
(dp103
g6
S'He is most probably in class 8B.'
p104
sg8
(dp105
I0
S'8b'
p106
sI1
I00
sI2
I00
sI3
I00
sI4
I00
sI5
I00
sI6
I00
sI7
I00
ssg12
S'Rahul'
p107
sg14
S'Yadav'
p108
sg16
S"Note: 'f' stands for free session and 'r' stands for recess.\n\nSession  : 1\t2\t3\t4\tr\t5\t6\t7\t8\t\n________________________________________________________________________________\n\nMonday   : f\t6B\t4A\t5C\tr\t1A\t2A\t3A\tf\t\nTuesday  : f\tf\t2C\t1A\tr\t3A\t5A\t1B\t4C\t\nWednesday: f\t1C\t4B\t4A\tr\t4C\t7B\tf\t3C\t\nThursday : f\t3B\t2A\t2B\tr\tf\t6A\t5C\t7C\t\nFriday   : f\t5A\t7B\t2C\tr\t3C\t6C\t5B\tf\t\nSaturday : f\t1C\t4B\t2B\tr\tf\t5B\t3B\t7A"
p109
sg18
S'Rahul Yadav'
p110
sg20
(lp111
(lp112
S'f'
p113
aS'6b'
p114
aS'4a'
p115
aS'5c'
p116
aS'1a'
p117
aS'2a'
p118
aS'3a'
p119
aS'f'
p120
aa(lp121
S'f'
p122
aS'f'
p123
aS'2c'
p124
aS'1a'
p125
aS'3a'
p126
aS'5a'
p127
aS'1b'
p128
aS'4c'
p129
aa(lp130
S'f'
p131
aS'1c'
p132
aS'4b'
p133
aS'4a'
p134
aS'4c'
p135
aS'7b'
p136
aS'f'
p137
aS'3c'
p138
aa(lp139
S'f'
p140
aS'3b'
p141
aS'2a'
p142
aS'2b'
p143
aS'f'
p144
aS'6a'
p145
aS'5c'
p146
aS'7c'
p147
aa(lp148
S'f'
p149
aS'5a'
p150
aS'7b'
p151
aS'2c'
p152
aS'3c'
p153
aS'6c'
p154
aS'5b'
p155
aS'f'
p156
aa(lp157
S'f'
p158
aS'1c'
p159
aS'4b'
p160
aS'2b'
p161
aS'f'
p162
aS'5b'
p163
aS'3b'
p164
aS'7a'
p165
aasg76
S'male'
p166
sg78
I01
sg79
(lp167
g106
ag132
ag133
ag134
ag135
ag136
ag137
ag138
asg81
S"Note:'*' denotes that Rahul is free in, or somewhere around music room.\n\nSession : 1\x0e\t\t2\t3\t4\tRECESS\t\t5\t6\t7\t\t8\t\nPosition: 8B(proxy) \t1C \t4B \t4A \tSTAFF ROOM\t4C \t7B \tmusic room* \t3C \t"
p168
sg83
(lp169
S'1'
p170
aS'2'
p171
aS'3'
p172
aS'4'
p173
aS'5'
p174
aS'6'
p175
asg89
S'staff room'
p176
sg91
g106
sg92
S'music room'
p177
sg94
g107
sg95
(lp178
(lp179
g102
ag98
ag106
aI0
aasS'subjects'
p180
(lp181
S'Civics'
p182
aS'Music'
p183
asS'history'
p184
(dp185
sbsI1
I00
sI2
I00
sI3
g4
sI4
I00
sI5
I00
sI6
g4
sI7
I00
ssg12
S'Mulayam'
p186
sg14
S'Modi'
p187
sg16
S"Note: 'f' stands for free session and 'r' stands for recess.\n\nSession  : 1\t2\t3\t4\tr\t5\t6\t7\t8\t\n________________________________________________________________________________\n\nMonday   : 8B\tf\t7C\t11C\tr\t11C\t7C\t7A\tf\t\nTuesday  : 8B\t11C\t9A\tf\tr\t8B\t7C\t7A\tf\t\nWednesday: 8B\t7C\tf\t10C\tr\tf\t11C\t7A\tf\t\nThursday : 8B\t8B\t11C\tf\tr\t7C\t7A\tf\t11C\t\nFriday   : 8B\tf\t7A\t7C\tr\tf\t8B\t11C\t11C\t\nSaturday : 7A\t11C\tf\t7C\tr\t7C\t10C\tf\t9A"
p188
sg18
S'Mulayam Modi'
p189
sg20
(lp190
(lp191
S'8b'
p192
aS'f'
p193
aS'7c'
p194
aS'11c'
p195
aS'11c'
p196
aS'7c'
p197
aS'7a'
p198
aS'f'
p199
aa(lp200
S'8b'
p201
aS'11c'
p202
aS'9a'
p203
aS'f'
p204
aS'8b'
p205
aS'7c'
p206
aS'7a'
p207
aS'f'
p208
aa(lp209
g106
aS'7c'
p210
aS'f'
p211
ag10
aS'f'
p212
aS'11c'
p213
ag11
aS'f'
p214
aa(lp215
S'8b'
p216
aS'8b'
p217
aS'11c'
p218
aS'f'
p219
aS'7c'
p220
aS'7a'
p221
aS'f'
p222
aS'11c'
p223
aa(lp224
S'8b'
p225
aS'f'
p226
aS'7a'
p227
aS'7c'
p228
aS'f'
p229
aS'8b'
p230
aS'11c'
p231
aS'11c'
p232
aa(lp233
S'7a'
p234
aS'11c'
p235
aS'f'
p236
aS'7c'
p237
aS'7c'
p238
aS'10c'
p239
aS'f'
p240
aS'9a'
p241
aasg76
S'male'
p242
sg78
I00
sg79
g209
sg81
S'Session : 1\x0e\t2\t3\t\t4\tRECESS\t\t5\t\t6\t7\t8\t\t\nPosition: 8B \t7C \tlibrary \t10C \tSTAFF ROOM\tlibrary \t11C \t7A \tlibrary \t'
p243
sg83
(lp244
S'10'
p245
aS'11'
p246
aS'7'
p247
aS'8'
p248
aS'9'
p249
asg89
S'staff room'
p250
sg92
S'library'
p251
sg94
g186
sg95
(lp252
g97
a(lp253
g4
ag98
ag11
aI6
aag179
asg180
(lp254
S'economics'
p255
aS'hindi'
p256
aS'social science'
p257
asg184
(dp258
sbag10
aI3
aag253
asg180
(lp259
S'biology'
p260
asg184
(dp261
sbag102
a(i__main__
Teacher
p262
(dp263
g6
S'He is most probably in class 5A.'
p264
sg8
(dp265
I0
I00
sI1
I00
sI2
I00
sI3
S'10b'
p266
sI4
I00
sI5
I00
sI6
I00
sI7
I00
ssg12
S'Narendra'
p267
sg14
S'Gandhi'
p268
sg16
S"Note: 'f' stands for free session and 'r' stands for recess.\n\nSession  : 1\t2\t3\t4\tr\t5\t6\t7\t8\t\n________________________________________________________________________________\n\nMonday   : 5A\tf\t6A\t7B\tr\t8A\t7A\t6A\tf\t\nTuesday  : 5A\t6A\tf\tf\tr\t5A\t6A\tf\t7B\t\nWednesday: 5A\t7A\t6A\tf\tr\t7B\t5B\tf\t6A\t\nThursday : f\t7B\tf\t3C\tr\t6A\t5A\tf\t7A\t\nFriday   : 5A\tf\t7C\t6A\tr\tf\t5A\tf\tf\t\nSaturday : f\t7B\t5A\tf\tr\t7A\t8A\tf\t6A"
p269
sg18
S'Narendra Gandhi'
p270
sg20
(lp271
(lp272
S'5a'
p273
aS'f'
p274
aS'6a'
p275
aS'7b'
p276
aS'8a'
p277
aS'7a'
p278
aS'6a'
p279
aS'f'
p280
aa(lp281
S'5a'
p282
aS'6a'
p283
aS'f'
p284
aS'f'
p285
aS'5a'
p286
aS'6a'
p287
aS'f'
p288
aS'7b'
p289
aa(lp290
S'5a'
p291
aS'7a'
p292
aS'6a'
p293
aS'f'
p294
aS'7b'
p295
aS'5b'
p296
aS'f'
p297
aS'6a'
p298
aa(lp299
S'f'
p300
aS'7b'
p301
aS'f'
p302
aS'3c'
p303
aS'6a'
p304
aS'5a'
p305
aS'f'
p306
aS'7a'
p307
aa(lp308
S'5a'
p309
aS'f'
p310
aS'7c'
p311
aS'6a'
p312
aS'f'
p313
aS'5a'
p314
aS'f'
p315
aS'f'
p316
aa(lp317
S'f'
p318
aS'7b'
p319
aS'5a'
p320
aS'f'
p321
aS'7a'
p322
aS'8a'
p323
aS'f'
p324
aS'6a'
p325
aasg76
S'male'
p326
sg78
I01
sg79
(lp327
g291
ag292
ag293
ag266
ag295
ag296
ag297
ag298
asg81
S"Note:'*' denotes that Narendra is free in, or somewhere around library.\n\nSession : 1\x0e\t2\t3\t4\t\tRECESS\t5\t6\t7\t\t8\t\nPosition: 5A \t7A \t6A \t10B(proxy) \tGROUND\t7B \t5B \tlibrary* \t6A \t"
p328
sg83
(lp329
S'5'
p330
aS'6'
p331
aS'7'
p332
aS'8'
p333
asg89
S'ground'
p334
sg91
g291
sg92
S'library'
p335
sg94
g267
sg95
(lp336
(lp337
g262
a(i__main__
Teacher
p338
(dp339
g6
S'She is absent today.'
p340
sg8
(dp341
I0
I00
sI1
I00
sI2
I00
sI3
g262
sI4
I00
sI5
I00
sI6
I00
sI7
I00
ssg12
S'Sonia'
p342
sg14
S'Singh'
p343
sg16
S"Note: 'f' stands for free session and 'r' stands for recess.\n\nSession  : 1\t2\t3\t4\tr\t5\t6\t7\t8\t\n________________________________________________________________________________\n\nMonday   : 10A\t10A\t11S\tf\tr\t12S\t9C\t10C\tf\t\nTuesday  : 10A\t12S\t12S\t11S\tr\tf\tf\t10B\t11S\t\nWednesday: 11S\t11S\t10A\t10B\tr\tf\t9B\tf\tf\t\nThursday : 10C\t11S\t12S\tf\tr\tf\t10A\t12S\t12S\t\nFriday   : f\t11S\t9A\t12S\tr\t11S\tf\t12S\t12S\t\nSaturday : f\tf\t11S\t11S\tr\t12S\t12S\tf\tf"
p344
sg18
S'Sonia Singh'
p345
sg20
(lp346
(lp347
S'10a'
p348
aS'10a'
p349
aS'11s'
p350
aS'f'
p351
aS'12s'
p352
aS'9c'
p353
aS'10c'
p354
aS'f'
p355
aa(lp356
S'10a'
p357
aS'12s'
p358
aS'12s'
p359
aS'11s'
p360
aS'f'
p361
aS'f'
p362
aS'10b'
p363
aS'11s'
p364
aa(lp365
S'11s'
p366
aS'11s'
p367
aS'10a'
p368
ag266
aS'f'
p369
aS'9b'
p370
aS'f'
p371
aS'f'
p372
aa(lp373
S'10c'
p374
aS'11s'
p375
aS'12s'
p376
aS'f'
p377
aS'f'
p378
aS'10a'
p379
aS'12s'
p380
aS'12s'
p381
aa(lp382
S'f'
p383
aS'11s'
p384
aS'9a'
p385
aS'12s'
p386
aS'11s'
p387
aS'f'
p388
aS'12s'
p389
aS'12s'
p390
aa(lp391
S'f'
p392
aS'f'
p393
aS'11s'
p394
aS'11s'
p395
aS'12s'
p396
aS'12s'
p397
aS'f'
p398
aS'f'
p399
aasg76
S'female'
p400
sg78
I00
sg79
g365
sg81
S'Session : 1\x0e\t2\t3\t4\tRECESS\t\t5\t\t6\t7\t\t8\t\t\nPosition: 11S \t11S \t10A \t10B \tCHEMISTRY LAB\tchemistry lab \t9B \tchemistry lab \tchemistry lab \t'
p401
sg83
(lp402
S'10'
p403
aS'11'
p404
aS'12'
p405
aS'9'
p406
asg89
S'chemistry lab'
p407
sg92
S'chemistry lab'
p408
sg94
g345
sg95
(lp409
g337
asg180
(lp410
S'chemistry'
p411
asg184
(dp412
sbag266
aI3
aasg180
(lp413
S'Gujarati'
p414
aS'Spanish'
p415
asg184
(dp416
sbasS'pres_teachers'
p417
(lp418
g4
ag102
ag262
asS'abs_teachers'
p419
(lp420
g98
ag338
asS'custom_proxies'
p421
(lp422
sS'removed_proxies'
p423
(lp424
sS'gen_proxies'
p425
(lp426
g97
ag253
ag179
ag337
asS'clamoni'
p427
(dp428
g370
(lp429
I5
asg210
(lp430
I1
asg213
(lp431
I5
asg368
(lp432
I2
asg366
(lp433
I0
aI1
assS'teachers'
p434
(lp435
g98
ag102
ag262
ag338
ag4
asg95
(lp436
g179
ag97
ag337
ag253
asb.