(i__main__
Stats
p0
(dp1
S'proxy_teachers'
p2
(lp3
sS'pres_teachers'
p4
(lp5
(i__main__
Teacher
p6
(dp7
S'status'
p8
S'He is most probably in class 7A.'
p9
sS'assigned'
p10
(dp11
I0
I00
sI1
I00
sI2
I00
sI3
I00
sI4
I00
sI5
I00
sI6
I00
sI7
I00
ssS'first_name'
p12
S'Narendra'
p13
sS'last_name'
p14
S'Gandhi'
p15
sS'sched'
p16
S"Note: 'f' stands for free session and 'r' stands for recess.\n\nSession  : 1\t2\t3\t4\tr\t5\t6\t7\t8\t\n________________________________________________________________________________\n\nMonday   : 5A\tf\t6A\t7B\tr\t8A\t7A\t6A\tf\t\nTuesday  : 5A\t6A\tf\tf\tr\t5A\t6A\tf\t7B\t\nWednesday: 5A\t7A\t6A\tf\tr\t7B\t5B\tf\t6A\t\nThursday : f\t7B\tf\t3C\tr\t6A\t5A\tf\t7A\t\nFriday   : 5A\tf\t7C\t6A\tr\tf\t5A\tf\tf\t\nSaturday : f\t7B\t5A\tf\tr\t7A\t8A\tf\t6A   <- today"
p17
sS'name'
p18
S'Narendra Gandhi'
p19
sS'schedule'
p20
(lp21
(lp22
S'5a'
p23
aS'f'
p24
aS'6a'
p25
aS'7b'
p26
aS'8a'
p27
aS'7a'
p28
aS'6a'
p29
aS'f'
p30
aa(lp31
S'5a'
p32
aS'6a'
p33
aS'f'
p34
aS'f'
p35
aS'5a'
p36
aS'6a'
p37
aS'f'
p38
aS'7b'
p39
aa(lp40
S'5a'
p41
aS'7a'
p42
aS'6a'
p43
aS'f'
p44
aS'7b'
p45
aS'5b'
p46
aS'f'
p47
aS'6a'
p48
aa(lp49
S'f'
p50
aS'7b'
p51
aS'f'
p52
aS'3c'
p53
aS'6a'
p54
aS'5a'
p55
aS'f'
p56
aS'7a'
p57
aa(lp58
S'5a'
p59
aS'f'
p60
aS'7c'
p61
aS'6a'
p62
aS'f'
p63
aS'5a'
p64
aS'f'
p65
aS'f'
p66
aa(lp67
S'f'
p68
aS'7b'
p69
aS'5a'
p70
aS'f'
p71
aS'7a'
p72
aS'8a'
p73
aS'f'
p74
aS'6a'
p75
aasS'gender'
p76
S'male'
p77
sS'pres_pos'
p78
g72
sS'is_present'
p79
I01
sS'today_sched'
p80
g67
sS'tod_sched'
p81
S"Note:'*' denotes that Narendra is free in, or somewhere around library.\n\nSession : 1\t\t2\t3\t4\t\tRECESS\t5\x0e\t6\t7\t\t8\t\nPosition: library* \t7B \t5A \tlibrary* \tGROUND\t7A \t8A \tlibrary* \t6A \t"
p82
sS'classes'
p83
(lp84
S'5'
p85
aS'6'
p86
aS'7'
p87
aS'8'
p88
asS'recess_pos'
p89
S'ground'
p90
sS'saved_assignments'
p91
g11
sS'free_pos'
p92
S'library'
p93
sS'title_name'
p94
g13
sS'proxies'
p95
(lp96
sS'subjects'
p97
(lp98
S'Gujarati'
p99
aS'Spanish'
p100
asS'history'
p101
(dp102
sba(i__main__
Teacher
p103
(dp104
g8
S'She is most probably in class 9C.'
p105
sg10
(dp106
I0
I00
sI1
I00
sI2
I00
sI3
I00
sI4
I00
sI5
I00
sI6
I00
sI7
I00
ssg12
S'Sonia'
p107
sg14
S'Yadav'
p108
sg16
S"Note: 'f' stands for free session and 'r' stands for recess.\n\nSession  : 1\t2\t3\t4\tr\t5\t6\t7\t8\t\n________________________________________________________________________________\n\nMonday   : 10B\t10B\t12S\t11S\tr\t11S\tf\t10A\t10A\t\nTuesday  : f\t11S\tf\t12S\tr\t12S\tf\t9B\t9B\t\nWednesday: 9C\t9C\t12S\tf\tr\t9B\t11S\tf\tf\t\nThursday : 12S\t12S\t11S\tf\tr\t9A\t9A\t10B\t11S\t\nFriday   : f\t10C\t10C\t9A\tr\tf\t12S\t11S\t11S\t\nSaturday : f\t11S\t12S\t12S\tr\t9C\tf\t10C\t10A   <- today"
p109
sg18
S'Sonia Yadav'
p110
sg20
(lp111
(lp112
S'10b'
p113
aS'10b'
p114
aS'12s'
p115
aS'11s'
p116
aS'11s'
p117
aS'f'
p118
aS'10a'
p119
aS'10a'
p120
aa(lp121
S'f'
p122
aS'11s'
p123
aS'f'
p124
aS'12s'
p125
aS'12s'
p126
aS'f'
p127
aS'9b'
p128
aS'9b'
p129
aa(lp130
S'9c'
p131
aS'9c'
p132
aS'12s'
p133
aS'f'
p134
aS'9b'
p135
aS'11s'
p136
aS'f'
p137
aS'f'
p138
aa(lp139
S'12s'
p140
aS'12s'
p141
aS'11s'
p142
aS'f'
p143
aS'9a'
p144
aS'9a'
p145
aS'10b'
p146
aS'11s'
p147
aa(lp148
S'f'
p149
aS'10c'
p150
aS'10c'
p151
aS'9a'
p152
aS'f'
p153
aS'12s'
p154
aS'11s'
p155
aS'11s'
p156
aa(lp157
S'f'
p158
aS'11s'
p159
aS'12s'
p160
aS'12s'
p161
aS'9c'
p162
aS'f'
p163
aS'10c'
p164
aS'10a'
p165
aasg76
S'female'
p166
sg78
g162
sg79
I01
sg80
g157
sg81
S"Note:'*' denotes that Sonia is free in, or somewhere around biology lab.\n\nSession : 1\t\t2\t3\t4\tRECESS\t5\x0e\t6\t\t7\t8\t\nPosition: biology lab* \t11S \t12S \t12S \tGROUND\t9C \tbiology lab* \t10C \t10A \t"
p167
sg83
(lp168
S'10'
p169
aS'11'
p170
aS'12'
p171
aS'9'
p172
asg89
S'ground'
p173
sg91
g106
sg92
S'biology lab'
p174
sg94
g110
sg95
(lp175
sg97
(lp176
S'biology'
p177
asg101
(dp178
sba(i__main__
Teacher
p179
(dp180
g8
S'He is most probably near music room.'
p181
sg10
(dp182
I0
I00
sI1
I00
sI2
I00
sI3
I00
sI4
I00
sI5
I00
sI6
I00
sI7
I00
ssg12
S'Rahul'
p183
sg14
S'Yadav'
p184
sg16
S"Note: 'f' stands for free session and 'r' stands for recess.\n\nSession  : 1\t2\t3\t4\tr\t5\t6\t7\t8\t\n________________________________________________________________________________\n\nMonday   : f\t6B\t4A\t5C\tr\t1A\t2A\t3A\tf\t\nTuesday  : f\tf\t2C\t1A\tr\t3A\t5A\t1B\t4C\t\nWednesday: f\t1C\t4B\t4A\tr\t4C\t7B\tf\t3C\t\nThursday : f\t3B\t2A\t2B\tr\tf\t6A\t5C\t7C\t\nFriday   : f\t5A\t7B\t2C\tr\t3C\t6C\t5B\tf\t\nSaturday : f\t1C\t4B\t2B\tr\tf\t5B\t3B\t7A   <- today"
p185
sg18
S'Rahul Yadav'
p186
sg20
(lp187
(lp188
S'f'
p189
aS'6b'
p190
aS'4a'
p191
aS'5c'
p192
aS'1a'
p193
aS'2a'
p194
aS'3a'
p195
aS'f'
p196
aa(lp197
S'f'
p198
aS'f'
p199
aS'2c'
p200
aS'1a'
p201
aS'3a'
p202
aS'5a'
p203
aS'1b'
p204
aS'4c'
p205
aa(lp206
S'f'
p207
aS'1c'
p208
aS'4b'
p209
aS'4a'
p210
aS'4c'
p211
aS'7b'
p212
aS'f'
p213
aS'3c'
p214
aa(lp215
S'f'
p216
aS'3b'
p217
aS'2a'
p218
aS'2b'
p219
aS'f'
p220
aS'6a'
p221
aS'5c'
p222
aS'7c'
p223
aa(lp224
S'f'
p225
aS'5a'
p226
aS'7b'
p227
aS'2c'
p228
aS'3c'
p229
aS'6c'
p230
aS'5b'
p231
aS'f'
p232
aa(lp233
S'f'
p234
aS'1c'
p235
aS'4b'
p236
aS'2b'
p237
aS'f'
p238
aS'5b'
p239
aS'3b'
p240
aS'7a'
p241
aasg76
S'male'
p242
sg78
g238
sg79
I01
sg80
g233
sg81
S"Note:'*' denotes that Rahul is free in, or somewhere around music room.\n\nSession : 1\t\t2\t3\t4\tRECESS\t\t5\x0e\t\t6\t7\t8\t\nPosition: music room* \t1C \t4B \t2B \tSTAFF ROOM\tmusic room* \t5B \t3B \t7A \t"
p243
sg83
(lp244
S'1'
p245
aS'2'
p246
aS'3'
p247
aS'4'
p248
aS'5'
p249
aS'6'
p250
asg89
S'staff room'
p251
sg91
g182
sg92
S'music room'
p252
sg94
g183
sg95
(lp253
sg97
(lp254
S'Civics'
p255
aS'Music'
p256
asg101
(dp257
sba(i__main__
Teacher
p258
(dp259
g8
S'He is most probably in class 9A.'
p260
sg10
(dp261
I0
I00
sI1
I00
sI2
I00
sI3
I00
sI4
I00
sI5
I00
sI6
I00
sI7
I00
ssg12
S'Albert'
p262
sg14
S'Newton'
p263
sg16
S"Note: 'f' stands for free session and 'r' stands for recess.\n\nSession  : 1\t2\t3\t4\tr\t5\t6\t7\t8\t\n________________________________________________________________________________\n\nMonday   : 9A\t9B\t10A\t10B\tr\tf\t11S\t12S\tf\t\nTuesday  : 10B\t10A\tf\tf\tr\t9A\t12S\t12S\tf\t\nWednesday: 10B\t12S\t10B\tf\tr\tf\t9A\tf\t10A\t\nThursday : 11S\t10A\t10B\t11S\tr\t12S\t9B\tf\tf\t\nFriday   : f\t9A\t9B\t10A\tr\t10B\t11S\t10A\tf\t\nSaturday : f\t12S\t10A\t10B\tr\t9A\t9B\t12S\tf   <- today"
p264
sg18
S'Albert Newton'
p265
sg20
(lp266
(lp267
S'9a'
p268
aS'9b'
p269
aS'10a'
p270
aS'10b'
p271
aS'f'
p272
aS'11s'
p273
aS'12s'
p274
aS'f'
p275
aa(lp276
S'10b'
p277
aS'10a'
p278
aS'f'
p279
aS'f'
p280
aS'9a'
p281
aS'12s'
p282
aS'12s'
p283
aS'f'
p284
aa(lp285
S'10b'
p286
aS'12s'
p287
aS'10b'
p288
aS'f'
p289
aS'f'
p290
aS'9a'
p291
aS'f'
p292
aS'10a'
p293
aa(lp294
S'11s'
p295
aS'10a'
p296
aS'10b'
p297
aS'11s'
p298
aS'12s'
p299
aS'9b'
p300
aS'f'
p301
aS'f'
p302
aa(lp303
S'f'
p304
aS'9a'
p305
aS'9b'
p306
aS'10a'
p307
aS'10b'
p308
aS'11s'
p309
aS'10a'
p310
aS'f'
p311
aa(lp312
S'f'
p313
aS'12s'
p314
aS'10a'
p315
aS'10b'
p316
aS'9a'
p317
aS'9b'
p318
aS'12s'
p319
aS'f'
p320
aasg76
S'male'
p321
sg78
g317
sg79
I01
sg80
g312
sg81
S"Note:'*' denotes that Albert is free in, or somewhere around physics lab.\n\nSession : 1\t\t2\t3\t4\tRECESS\t5\x0e\t6\t7\t8\t\t\nPosition: physics lab* \t12S \t10A \t10B \tGROUND\t9A \t9B \t12S \tphysics lab* \t"
p322
sg83
(lp323
S'10'
p324
aS'11'
p325
aS'12'
p326
aS'9'
p327
asg89
S'ground'
p328
sg91
g261
sg92
S'physics lab'
p329
sg94
g262
sg95
(lp330
sg97
(lp331
S' maths'
p332
aS'physics'
p333
asg101
(dp334
sbasS'abs_teachers'
p335
(lp336
(i__main__
Teacher
p337
(dp338
g8
S'He is absent today.'
p339
sg10
(dp340
I0
I00
sI1
I00
sI2
I00
sI3
I00
sI4
I00
sI5
I00
sI6
I00
sI7
I00
ssg12
S'Mulayam'
p341
sg14
S'Modi'
p342
sg16
S"Note: 'f' stands for free session and 'r' stands for recess.\n\nSession  : 1\t2\t3\t4\tr\t5\t6\t7\t8\t\n________________________________________________________________________________\n\nMonday   : 8B\tf\t7C\t11C\tr\t11C\t7C\t7A\tf\t\nTuesday  : 8B\t11C\t9A\tf\tr\t8B\t7C\t7A\tf\t\nWednesday: 8B\t7C\tf\t10C\tr\tf\t11C\t7A\tf\t\nThursday : 8B\t8B\t11C\tf\tr\t7C\t7A\tf\t11C\t\nFriday   : 8B\tf\t7A\t7C\tr\tf\t8B\t11C\t11C\t\nSaturday : 7A\t11C\tf\t7C\tr\t7C\t10C\tf\t9A   <- today"
p343
sg18
S'Mulayam Modi'
p344
sg20
(lp345
(lp346
S'8b'
p347
aS'f'
p348
aS'7c'
p349
aS'11c'
p350
aS'11c'
p351
aS'7c'
p352
aS'7a'
p353
aS'f'
p354
aa(lp355
S'8b'
p356
aS'11c'
p357
aS'9a'
p358
aS'f'
p359
aS'8b'
p360
aS'7c'
p361
aS'7a'
p362
aS'f'
p363
aa(lp364
S'8b'
p365
aS'7c'
p366
aS'f'
p367
aS'10c'
p368
aS'f'
p369
aS'11c'
p370
aS'7a'
p371
aS'f'
p372
aa(lp373
S'8b'
p374
aS'8b'
p375
aS'11c'
p376
aS'f'
p377
aS'7c'
p378
aS'7a'
p379
aS'f'
p380
aS'11c'
p381
aa(lp382
S'8b'
p383
aS'f'
p384
aS'7a'
p385
aS'7c'
p386
aS'f'
p387
aS'8b'
p388
aS'11c'
p389
aS'11c'
p390
aa(lp391
S'7a'
p392
aS'11c'
p393
aS'f'
p394
aS'7c'
p395
aS'7c'
p396
aS'10c'
p397
aS'f'
p398
aS'9a'
p399
aasg76
S'male'
p400
sg79
I00
sg80
g391
sg81
S'Session : 1\t2\t3\t\t4\tRECESS\t\t5\x0e\t6\t7\t\t8\t\nPosition: 7A \t11C \tlibrary \t7C \tSTAFF ROOM\t7C \t10C \tlibrary \t9A \t'
p401
sg83
(lp402
S'10'
p403
aS'11'
p404
aS'7'
p405
aS'8'
p406
aS'9'
p407
asg89
S'staff room'
p408
sg91
g340
sg92
S'library'
p409
sg94
g341
sg95
(lp410
sg97
(lp411
S'economics'
p412
aS'hindi'
p413
aS'social science'
p414
asg101
(dp415
sba(i__main__
Teacher
p416
(dp417
g8
S'She is absent today.'
p418
sg10
(dp419
I0
I00
sI1
I00
sI2
I00
sI3
I00
sI4
I00
sI5
I00
sI6
I00
sI7
I00
ssg12
S'Sonia'
p420
sg14
S'Singh'
p421
sg16
S"Note: 'f' stands for free session and 'r' stands for recess.\n\nSession  : 1\t2\t3\t4\tr\t5\t6\t7\t8\t\n________________________________________________________________________________\n\nMonday   : 10A\t10A\t11S\tf\tr\t12S\t9C\t10C\tf\t\nTuesday  : 10A\t12S\t12S\t11S\tr\tf\tf\t10B\t11S\t\nWednesday: 11S\t11S\t10A\t10B\tr\tf\t9B\tf\tf\t\nThursday : 10C\t11S\t12S\tf\tr\tf\t10A\t12S\t12S\t\nFriday   : f\t11S\t9A\t12S\tr\t11S\tf\t12S\t12S\t\nSaturday : f\tf\t11S\t11S\tr\t12S\t12S\tf\tf   <- today"
p422
sg18
S'Sonia Singh'
p423
sg20
(lp424
(lp425
S'10a'
p426
aS'10a'
p427
aS'11s'
p428
aS'f'
p429
aS'12s'
p430
aS'9c'
p431
aS'10c'
p432
aS'f'
p433
aa(lp434
S'10a'
p435
aS'12s'
p436
aS'12s'
p437
aS'11s'
p438
aS'f'
p439
aS'f'
p440
aS'10b'
p441
aS'11s'
p442
aa(lp443
S'11s'
p444
aS'11s'
p445
aS'10a'
p446
aS'10b'
p447
aS'f'
p448
aS'9b'
p449
aS'f'
p450
aS'f'
p451
aa(lp452
S'10c'
p453
aS'11s'
p454
aS'12s'
p455
aS'f'
p456
aS'f'
p457
aS'10a'
p458
aS'12s'
p459
aS'12s'
p460
aa(lp461
S'f'
p462
aS'11s'
p463
aS'9a'
p464
aS'12s'
p465
aS'11s'
p466
aS'f'
p467
aS'12s'
p468
aS'12s'
p469
aa(lp470
S'f'
p471
aS'f'
p472
aS'11s'
p473
aS'11s'
p474
aS'12s'
p475
aS'12s'
p476
aS'f'
p477
aS'f'
p478
aasg76
S'female'
p479
sg79
I00
sg80
g470
sg81
S'Session : 1\t\t2\t\t3\t4\tRECESS\t\t5\x0e\t6\t7\t\t8\t\t\nPosition: chemistry lab \tchemistry lab \t11S \t11S \tCHEMISTRY LAB\t12S \t12S \tchemistry lab \tchemistry lab \t'
p480
sg83
(lp481
S'10'
p482
aS'11'
p483
aS'12'
p484
aS'9'
p485
asg89
S'chemistry lab'
p486
sg91
g419
sg92
S'chemistry lab'
p487
sg94
g423
sg95
(lp488
sg97
(lp489
S'chemistry'
p490
asg101
(dp491
sbasS'custom_proxies'
p492
(lp493
sS'removed_proxies'
p494
(lp495
sS's_proxies'
p496
(lp497
(lp498
g6
ag337
ag392
aI0
aa(lp499
g103
ag337
ag392
aI0
aa(lp500
g179
ag337
ag392
aI0
aa(lp501
g258
ag337
ag392
aI0
aa(lp502
g6
ag337
ag395
aI3
aa(lp503
g6
ag416
ag474
aI3
aa(lp504
g179
ag337
ag396
aI4
aa(lp505
g179
ag416
ag475
aI4
aa(lp506
g103
ag337
ag397
aI5
aa(lp507
g103
ag416
ag476
aI5
aa(lp508
g258
ag337
ag399
aI7
aasS'gen_proxies'
p509
(lp510
sS'clamoni'
p511
(dp512
g395
(lp513
I3
aI4
asg392
(lp514
I0
asg393
(lp515
I1
asg399
(lp516
I7
asg397
(lp517
I5
asg475
(lp518
I4
aI5
asg473
(lp519
I2
aI3
assS'teachers'
p520
(lp521
g337
ag179
ag258
ag103
ag6
ag416
asS'comp_proxies'
p522
(lp523
g498
ag502
ag506
ag504
ag508
asg95
(lp524
sb.