(i__main__
Stats
p0
(dp1
S'proxy_teachers'
p2
(lp3
(i__main__
Teacher
p4
(dp5
S'status'
p6
S'He is most probably in class 10B.'
p7
sS'assigned'
p8
(dp9
I0
I00
sI1
I00
sI2
S'9a'
p10
sI3
S'12s'
p11
sI4
I00
sI5
I00
sI6
I00
sI7
S'9b'
p12
ssS'first_name'
p13
S'Albert'
p14
sS'last_name'
p15
S'Newton'
p16
sS'sched'
p17
S"Note: 'f' stands for free session and 'r' stands for recess.\n\nSession  : 1\t2\t3\t4\tr\t5\t6\t7\t8\t\n________________________________________________________________________________\n\nMonday   : 9A\t9B\t10A\t10B\tr\tf\t11S\t12S\tf\t\nTuesday  : 10B\t10A\tf\tf\tr\t9A\t12S\t12S\tf   <- today\nWednesday: 10B\t12S\t10B\tf\tr\tf\t9A\tf\t10A\t\nThursday : 11S\t10A\t10B\t11S\tr\t12S\t9B\tf\tf\t\nFriday   : f\t9A\t9B\t10A\tr\t10B\t11S\t10A\tf\t\nSaturday : f\t12S\t10A\t10B\tr\t9A\t9B\t12S\tf"
p18
sS'name'
p19
S'Albert Newton'
p20
sS'schedule'
p21
(lp22
(lp23
S'9a'
p24
aS'9b'
p25
aS'10a'
p26
aS'10b'
p27
aS'f'
p28
aS'11s'
p29
aS'12s'
p30
aS'f'
p31
aa(lp32
S'10b'
p33
aS'10a'
p34
ag10
ag11
aS'9a'
p35
aS'12s'
p36
aS'12s'
p37
ag12
aa(lp38
S'10b'
p39
aS'12s'
p40
aS'10b'
p41
aS'f'
p42
aS'f'
p43
aS'9a'
p44
aS'f'
p45
aS'10a'
p46
aa(lp47
S'11s'
p48
aS'10a'
p49
aS'10b'
p50
aS'11s'
p51
aS'12s'
p52
aS'9b'
p53
aS'f'
p54
aS'f'
p55
aa(lp56
S'f'
p57
aS'9a'
p58
aS'9b'
p59
aS'10a'
p60
aS'10b'
p61
aS'11s'
p62
aS'10a'
p63
aS'f'
p64
aa(lp65
S'f'
p66
aS'12s'
p67
aS'10a'
p68
aS'10b'
p69
aS'9a'
p70
aS'9b'
p71
aS'12s'
p72
aS'f'
p73
aasS'gender'
p74
S'male'
p75
sS'pres_pos'
p76
g33
sS'is_present'
p77
I01
sS'today_sched'
p78
g32
sS'tod_sched'
p79
S'Session:1\x0e\t2\t3\t\t4\t\tRECESS\t5\t6\t7\t8\t\t\nStatus :10B \t10A \t9A(proxy) \t12S(proxy) \tGROUND\t9A \t12S \t12S \t9B(proxy) \t'
p80
sS'classes'
p81
(lp82
S'10'
p83
aS'11'
p84
aS'12'
p85
aS'9'
p86
asS'recess_pos'
p87
S'ground'
p88
sS'saved_assignments'
p89
g9
sS'free_pos'
p90
S'physics lab'
p91
sS'title_name'
p92
g14
sS'proxies'
p93
(lp94
(lp95
g4
a(i__main__
Teacher
p96
(dp97
g6
S'He is absent today.'
p98
sg8
(dp99
I0
I00
sI1
I00
sI2
g4
sI3
I00
sI4
(i__main__
Teacher
p100
(dp101
g6
S'She is most probably in class 10A.'
p102
sg8
(dp103
I0
I00
sI1
I00
sI2
I00
sI3
I00
sI4
S'8b'
p104
sI5
S'7c'
p105
sI6
I00
sI7
I00
ssg13
S'Sonia'
p106
sg15
S'Singh'
p107
sg17
S"Note: 'f' stands for free session and 'r' stands for recess.\n\nSession  : 1\t2\t3\t4\tr\t5\t6\t7\t8\t\n________________________________________________________________________________\n\nMonday   : 10A\t10A\t11S\tf\tr\t12S\t9C\t10C\tf\t\nTuesday  : 10A\t12S\t12S\t11S\tr\tf\tf\t10B\t11S   <- today\nWednesday: 11S\t11S\t10A\t10B\tr\tf\t9B\tf\tf\t\nThursday : 10C\t11S\t12S\tf\tr\tf\t10A\t12S\t12S\t\nFriday   : f\t11S\t9A\t12S\tr\t11S\tf\t12S\t12S\t\nSaturday : f\tf\t11S\t11S\tr\t12S\t12S\tf\tf"
p108
sg19
S'Sonia Singh'
p109
sg21
(lp110
(lp111
S'10a'
p112
aS'10a'
p113
aS'11s'
p114
aS'f'
p115
aS'12s'
p116
aS'9c'
p117
aS'10c'
p118
aS'f'
p119
aa(lp120
S'10a'
p121
aS'12s'
p122
aS'12s'
p123
aS'11s'
p124
ag104
ag105
aS'10b'
p125
aS'11s'
p126
aa(lp127
S'11s'
p128
aS'11s'
p129
aS'10a'
p130
aS'10b'
p131
aS'f'
p132
aS'9b'
p133
aS'f'
p134
aS'f'
p135
aa(lp136
S'10c'
p137
aS'11s'
p138
aS'12s'
p139
aS'f'
p140
aS'f'
p141
aS'10a'
p142
aS'12s'
p143
aS'12s'
p144
aa(lp145
S'f'
p146
aS'11s'
p147
aS'9a'
p148
aS'12s'
p149
aS'11s'
p150
aS'f'
p151
aS'12s'
p152
aS'12s'
p153
aa(lp154
S'f'
p155
aS'f'
p156
aS'11s'
p157
aS'11s'
p158
aS'12s'
p159
aS'12s'
p160
aS'f'
p161
aS'f'
p162
aasg74
S'female'
p163
sg76
g121
sg77
I01
sg78
g120
sg79
S'Session:1\x0e\t2\t3\t4\tRECESS\t\t5\t\t6\t\t7\t8\t\nStatus :10A \t12S \t12S \t11S \tCHEMISTRY LAB\t8B(proxy) \t7C(proxy) \t10B \t11S \t'
p164
sg81
(lp165
S'10'
p166
aS'11'
p167
aS'12'
p168
aS'9'
p169
asg87
S'chemistry lab'
p170
sg89
g103
sg90
S'chemistry lab'
p171
sg92
g109
sg93
(lp172
(lp173
g100
ag96
ag104
aI4
aa(lp174
g100
ag96
ag105
aI5
aasS'subjects'
p175
(lp176
S'chemistry'
p177
asS'history'
p178
(dp179
sbsI5
g100
sI6
(i__main__
Teacher
p180
(dp181
g6
S'He is most probably in class 5A.'
p182
sg8
(dp183
I0
I00
sI1
I00
sI2
S'2c'
p184
sI3
S'1a'
p185
sI4
I00
sI5
I00
sI6
S'7a'
p186
sI7
I00
ssg13
S'Narendra'
p187
sg15
S'Gandhi'
p188
sg17
S"Note: 'f' stands for free session and 'r' stands for recess.\n\nSession  : 1\t2\t3\t4\tr\t5\t6\t7\t8\t\n________________________________________________________________________________\n\nMonday   : 5A\tf\t6A\t7B\tr\t8A\t7A\t6A\tf\t\nTuesday  : 5A\t6A\tf\tf\tr\t5A\t6A\tf\t7B   <- today\nWednesday: 5A\t7A\t6A\tf\tr\t7B\t5B\tf\t6A\t\nThursday : f\t7B\tf\t3C\tr\t6A\t5A\tf\t7A\t\nFriday   : 5A\tf\t7C\t6A\tr\tf\t5A\tf\tf\t\nSaturday : f\t7B\t5A\tf\tr\t7A\t8A\tf\t6A"
p189
sg19
S'Narendra Gandhi'
p190
sg21
(lp191
(lp192
S'5a'
p193
aS'f'
p194
aS'6a'
p195
aS'7b'
p196
aS'8a'
p197
aS'7a'
p198
aS'6a'
p199
aS'f'
p200
aa(lp201
S'5a'
p202
aS'6a'
p203
ag184
ag185
aS'5a'
p204
aS'6a'
p205
ag186
aS'7b'
p206
aa(lp207
S'5a'
p208
aS'7a'
p209
aS'6a'
p210
aS'f'
p211
aS'7b'
p212
aS'5b'
p213
aS'f'
p214
aS'6a'
p215
aa(lp216
S'f'
p217
aS'7b'
p218
aS'f'
p219
aS'3c'
p220
aS'6a'
p221
aS'5a'
p222
aS'f'
p223
aS'7a'
p224
aa(lp225
S'5a'
p226
aS'f'
p227
aS'7c'
p228
aS'6a'
p229
aS'f'
p230
aS'5a'
p231
aS'f'
p232
aS'f'
p233
aa(lp234
S'f'
p235
aS'7b'
p236
aS'5a'
p237
aS'f'
p238
aS'7a'
p239
aS'8a'
p240
aS'f'
p241
aS'6a'
p242
aasg74
S'male'
p243
sg76
g202
sg77
I01
sg78
g201
sg79
S'Session:1\x0e\t2\t3\t\t4\t\tRECESS\t5\t6\t7\t\t8\t\nStatus :5A \t6A \t2C(proxy) \t1A(proxy) \tGROUND\t5A \t6A \t7A(proxy) \t7B \t'
p244
sg81
(lp245
S'5'
p246
aS'6'
p247
aS'7'
p248
aS'8'
p249
asg87
S'ground'
p250
sg89
g183
sg90
S'library'
p251
sg92
g187
sg93
(lp252
(lp253
g180
a(i__main__
Teacher
p254
(dp255
g6
S'He is absent today.'
p256
sg8
(dp257
I0
I00
sI1
I00
sI2
g180
sI3
g180
sI4
I00
sI5
I00
sI6
I00
sI7
I00
ssg13
S'Rahul'
p258
sg15
S'Yadav'
p259
sg17
S"Note: 'f' stands for free session and 'r' stands for recess.\n\nSession  : 1\t2\t3\t4\tr\t5\t6\t7\t8\t\n________________________________________________________________________________\n\nMonday   : f\t6B\t4A\t5C\tr\t1A\t2A\t3A\tf\t\nTuesday  : f\tf\t2C\t1A\tr\t3A\t5A\t1B\t4C   <- today\nWednesday: f\t1C\t4B\t4A\tr\t4C\t7B\tf\t3C\t\nThursday : f\t3B\t2A\t2B\tr\tf\t6A\t5C\t7C\t\nFriday   : f\t5A\t7B\t2C\tr\t3C\t6C\t5B\tf\t\nSaturday : f\t1C\t4B\t2B\tr\tf\t5B\t3B\t7A"
p260
sg19
S'Rahul Yadav'
p261
sg21
(lp262
(lp263
S'f'
p264
aS'6b'
p265
aS'4a'
p266
aS'5c'
p267
aS'1a'
p268
aS'2a'
p269
aS'3a'
p270
aS'f'
p271
aa(lp272
S'f'
p273
aS'f'
p274
ag184
ag185
aS'3a'
p275
aS'5a'
p276
aS'1b'
p277
aS'4c'
p278
aa(lp279
S'f'
p280
aS'1c'
p281
aS'4b'
p282
aS'4a'
p283
aS'4c'
p284
aS'7b'
p285
aS'f'
p286
aS'3c'
p287
aa(lp288
S'f'
p289
aS'3b'
p290
aS'2a'
p291
aS'2b'
p292
aS'f'
p293
aS'6a'
p294
aS'5c'
p295
aS'7c'
p296
aa(lp297
S'f'
p298
aS'5a'
p299
aS'7b'
p300
aS'2c'
p301
aS'3c'
p302
aS'6c'
p303
aS'5b'
p304
aS'f'
p305
aa(lp306
S'f'
p307
aS'1c'
p308
aS'4b'
p309
aS'2b'
p310
aS'f'
p311
aS'5b'
p312
aS'3b'
p313
aS'7a'
p314
aasg74
S'male'
p315
sg77
I00
sg78
g272
sg79
S'(He is absent today.)\n\nSession:1\x0e\t\t2\t\t3\t4\tRECESS\t\t5\t6\t7\t8\t\nStatus :music room \tmusic room \t2C \t1A \tSTAFF ROOM\t3A \t5A \t1B \t4C \t'
p316
sg81
(lp317
S'1'
p318
aS'2'
p319
aS'3'
p320
aS'4'
p321
aS'5'
p322
aS'6'
p323
asg87
S'staff room'
p324
sg89
g257
sg90
S'music room'
p325
sg92
g258
sg93
(lp326
g253
a(lp327
g180
ag254
ag185
aI3
aasg175
(lp328
S'Civics'
p329
aS'Music'
p330
asg178
(dp331
sbag184
aI2
aag327
a(lp332
g180
ag96
ag186
aI6
aasg175
(lp333
S'Gujarati'
p334
aS'Spanish'
p335
asg178
(dp336
sbsI7
I00
ssg13
S'Mulayam'
p337
sg15
S'Modi'
p338
sg17
S"Note: 'f' stands for free session and 'r' stands for recess.\n\nSession  : 1\t2\t3\t4\tr\t5\t6\t7\t8\t\n________________________________________________________________________________\n\nMonday   : 8B\tf\t7C\t11C\tr\t11C\t7C\t7A\tf\t\nTuesday  : 8B\t11C\t9A\tf\tr\t8B\t7C\t7A\tf   <- today\nWednesday: 8B\t7C\tf\t10C\tr\tf\t11C\t7A\tf\t\nThursday : 8B\t8B\t11C\tf\tr\t7C\t7A\tf\t11C\t\nFriday   : 8B\tf\t7A\t7C\tr\tf\t8B\t11C\t11C\t\nSaturday : 7A\t11C\tf\t7C\tr\t7C\t10C\tf\t9A"
p339
sg19
S'Mulayam Modi'
p340
sg21
(lp341
(lp342
S'8b'
p343
aS'f'
p344
aS'7c'
p345
aS'11c'
p346
aS'11c'
p347
aS'7c'
p348
aS'7a'
p349
aS'f'
p350
aa(lp351
S'8b'
p352
aS'11c'
p353
ag10
aS'f'
p354
ag104
ag105
ag186
aS'f'
p355
aa(lp356
S'8b'
p357
aS'7c'
p358
aS'f'
p359
aS'10c'
p360
aS'f'
p361
aS'11c'
p362
aS'7a'
p363
aS'f'
p364
aa(lp365
S'8b'
p366
aS'8b'
p367
aS'11c'
p368
aS'f'
p369
aS'7c'
p370
aS'7a'
p371
aS'f'
p372
aS'11c'
p373
aa(lp374
S'8b'
p375
aS'f'
p376
aS'7a'
p377
aS'7c'
p378
aS'f'
p379
aS'8b'
p380
aS'11c'
p381
aS'11c'
p382
aa(lp383
S'7a'
p384
aS'11c'
p385
aS'f'
p386
aS'7c'
p387
aS'7c'
p388
aS'10c'
p389
aS'f'
p390
aS'9a'
p391
aasg74
S'male'
p392
sg77
I00
sg78
g351
sg79
S'(He is absent today.)\n\nSession:1\x0e\t2\t3\t4\t\tRECESS\t\t5\t6\t7\t8\t\t\nStatus :8B \t11C \t9A \tlibrary \tSTAFF ROOM\t8B \t7C \t7A \tlibrary \t'
p393
sg81
(lp394
S'10'
p395
aS'11'
p396
aS'7'
p397
aS'8'
p398
aS'9'
p399
asg87
S'staff room'
p400
sg89
g99
sg90
S'library'
p401
sg92
g337
sg93
(lp402
g95
ag173
ag174
ag332
asg175
(lp403
S'economics'
p404
aS'hindi'
p405
aS'social science'
p406
asg178
(dp407
sbag10
aI2
aa(lp408
g4
a(i__main__
Teacher
p409
(dp410
g6
S'She is absent today.'
p411
sg8
(dp412
I0
I00
sI1
I00
sI2
I00
sI3
g4
sI4
I00
sI5
I00
sI6
I00
sI7
g4
ssg13
S'Sonia'
p413
sg15
S'Yadav'
p414
sg17
S"Note: 'f' stands for free session and 'r' stands for recess.\n\nSession  : 1\t2\t3\t4\tr\t5\t6\t7\t8\t\n________________________________________________________________________________\n\nMonday   : 10B\t10B\t12S\t11S\tr\t11S\tf\t10A\t10A\t\nTuesday  : f\t11S\tf\t12S\tr\t12S\tf\t9B\t9B   <- today\nWednesday: 9C\t9C\t12S\tf\tr\t9B\t11S\tf\tf\t\nThursday : 12S\t12S\t11S\tf\tr\t9A\t9A\t10B\t11S\t\nFriday   : f\t10C\t10C\t9A\tr\tf\t12S\t11S\t11S\t\nSaturday : f\t11S\t12S\t12S\tr\t9C\tf\t10C\t10A"
p415
sg19
S'Sonia Yadav'
p416
sg21
(lp417
(lp418
S'10b'
p419
aS'10b'
p420
aS'12s'
p421
aS'11s'
p422
aS'11s'
p423
aS'f'
p424
aS'10a'
p425
aS'10a'
p426
aa(lp427
S'f'
p428
aS'11s'
p429
aS'f'
p430
ag11
aS'12s'
p431
aS'f'
p432
aS'9b'
p433
ag12
aa(lp434
S'9c'
p435
aS'9c'
p436
aS'12s'
p437
aS'f'
p438
aS'9b'
p439
aS'11s'
p440
aS'f'
p441
aS'f'
p442
aa(lp443
S'12s'
p444
aS'12s'
p445
aS'11s'
p446
aS'f'
p447
aS'9a'
p448
aS'9a'
p449
aS'10b'
p450
aS'11s'
p451
aa(lp452
S'f'
p453
aS'10c'
p454
aS'10c'
p455
aS'9a'
p456
aS'f'
p457
aS'12s'
p458
aS'11s'
p459
aS'11s'
p460
aa(lp461
S'f'
p462
aS'11s'
p463
aS'12s'
p464
aS'12s'
p465
aS'9c'
p466
aS'f'
p467
aS'10c'
p468
aS'10a'
p469
aasg74
S'female'
p470
sg77
I00
sg78
g427
sg79
S'(She is absent today.)\n\nSession:1\x0e\t\t2\t3\t\t4\tRECESS\t5\t6\t\t7\t8\t\nStatus :biology lab \t11S \tbiology lab \t12S \tGROUND\t12S \tbiology lab \t9B \t9B \t'
p471
sg81
(lp472
S'10'
p473
aS'11'
p474
aS'12'
p475
aS'9'
p476
asg87
S'ground'
p477
sg89
g412
sg90
S'biology lab'
p478
sg92
g416
sg93
(lp479
g408
a(lp480
g4
ag409
ag12
aI7
aasg175
(lp481
S'biology'
p482
asg178
(dp483
sbag11
aI3
aag480
asg175
(lp484
S' maths'
p485
aS'physics'
p486
asg178
(dp487
sbag180
ag100
asS'pres_teachers'
p488
(lp489
g100
ag4
ag180
asS'abs_teachers'
p490
(lp491
g96
ag409
ag254
asS'custom_proxies'
p492
(lp493
sS'removed_proxies'
p494
(lp495
sS's_proxies'
p496
(lp497
g95
a(lp498
g4
ag254
ag184
aI2
aag253
a(lp499
g180
ag96
ag10
aI2
aag408
a(lp500
g180
ag409
ag11
aI3
aa(lp501
g4
ag254
ag185
aI3
aag327
ag173
a(lp502
g100
ag409
ag431
aI4
aa(lp503
g100
ag254
ag275
aI4
aag174
a(lp504
g100
ag254
ag276
aI5
aag332
a(lp505
g180
ag409
ag433
aI6
aa(lp506
g180
ag254
ag277
aI6
aag480
a(lp507
g4
ag254
ag278
aI7
aasS'gen_proxies'
p508
(lp509
g95
ag253
ag408
ag327
ag173
ag174
ag332
ag480
asS'clamoni'
p510
(dp511
g353
(lp512
I1
asg352
(lp513
I0
asg433
(lp514
I6
asg11
(lp515
I4
asg429
(lp516
I1
asg277
(lp517
I6
asg275
(lp518
I4
asg276
(lp519
I5
asg278
(lp520
I7
assS'teachers'
p521
(lp522
g409
ag4
ag180
ag100
ag254
ag96
asS'comp_proxies'
p523
(lp524
g95
ag253
ag408
ag327
ag173
ag174
ag332
ag480
asg93
(lp525
g95
ag253
ag408
ag327
ag173
ag174
ag332
ag480
asb.