(i__main__
Stats
p0
(dp1
S'proxy_teachers'
p2
(lp3
(i__main__
Teacher
p4
(dp5
S'status'
p6
S'He is most probably in class 3B.'
p7
sS'assigned'
p8
(dp9
I0
S'8b'
p10
sI1
I00
sI2
I00
sI3
I00
sI4
S'7c'
p11
sI5
I00
sI6
I00
sI7
I00
ssS'first_name'
p12
S'Rahul'
p13
sS'last_name'
p14
S'Yadav'
p15
sS'sched'
p16
S"Note: 'f' stands for free session and 'r' stands for recess.\n\nSession  : 1\t2\t3\t4\tr\t5\t6\t7\t8\t\n________________________________________________________________________________\n\nMonday   : f\t6B\t4A\t5C\tr\t1A\t2A\t3A\tf\t\nTuesday  : f\tf\t2C\t1A\tr\t3A\t5A\t1B\t4C\t\nWednesday: f\t1C\t4B\t4A\tr\t4C\t7B\tf\t3C\t\nThursday : f\t3B\t2A\t2B\tr\tf\t6A\t5C\t7C   <- today\nFriday   : f\t5A\t7B\t2C\tr\t3C\t6C\t5B\tf\t\nSaturday : f\t1C\t4B\t2B\tr\tf\t5B\t3B\t7A"
p17
sS'name'
p18
S'Rahul Yadav'
p19
sS'schedule'
p20
(lp21
(lp22
S'f'
p23
aS'6b'
p24
aS'4a'
p25
aS'5c'
p26
aS'1a'
p27
aS'2a'
p28
aS'3a'
p29
aS'f'
p30
aa(lp31
S'f'
p32
aS'f'
p33
aS'2c'
p34
aS'1a'
p35
aS'3a'
p36
aS'5a'
p37
aS'1b'
p38
aS'4c'
p39
aa(lp40
S'f'
p41
aS'1c'
p42
aS'4b'
p43
aS'4a'
p44
aS'4c'
p45
aS'7b'
p46
aS'f'
p47
aS'3c'
p48
aa(lp49
g10
aS'3b'
p50
aS'2a'
p51
aS'2b'
p52
ag11
aS'6a'
p53
aS'5c'
p54
aS'7c'
p55
aa(lp56
S'f'
p57
aS'5a'
p58
aS'7b'
p59
aS'2c'
p60
aS'3c'
p61
aS'6c'
p62
aS'5b'
p63
aS'f'
p64
aa(lp65
S'f'
p66
aS'1c'
p67
aS'4b'
p68
aS'2b'
p69
aS'f'
p70
aS'5b'
p71
aS'3b'
p72
aS'7a'
p73
aasS'gender'
p74
S'male'
p75
sS'pres_pos'
p76
g50
sS'is_present'
p77
I01
sS'today_sched'
p78
g49
sS'tod_sched'
p79
S'Session:1\t\t2\x0e\t3\t4\tRECESS\t\t5\t\t6\t7\t8\t\nStatus :8B(proxy) \t3B \t2A \t2B \tSTAFF ROOM\t7C(proxy) \t6A \t5C \t7C \t'
p80
sS'classes'
p81
(lp82
S'1'
p83
aS'2'
p84
aS'3'
p85
aS'4'
p86
aS'5'
p87
aS'6'
p88
asS'recess_pos'
p89
S'staff room'
p90
sS'saved_assignments'
p91
g9
sS'free_pos'
p92
S'music room'
p93
sS'title_name'
p94
g13
sS'proxies'
p95
(lp96
(lp97
g4
a(i__main__
Teacher
p98
(dp99
g6
S'He is absent today.'
p100
sg8
(dp101
I0
g4
sI1
I00
sI2
I00
sI3
I00
sI4
g4
sI5
I00
sI6
I00
sI7
I00
ssg12
S'Mulayam'
p102
sg14
S'Modi'
p103
sg16
S"Note: 'f' stands for free session and 'r' stands for recess.\n\nSession  : 1\t2\t3\t4\tr\t5\t6\t7\t8\t\n________________________________________________________________________________\n\nMonday   : 8B\tf\t7C\t11C\tr\t11C\t7C\t7A\tf\t\nTuesday  : 8B\t11C\t9A\tf\tr\t8B\t7C\t7A\tf\t\nWednesday: 8B\t7C\tf\t10C\tr\tf\t11C\t7A\tf\t\nThursday : 8B\t8B\t11C\tf\tr\t7C\t7A\tf\t11C   <- today\nFriday   : 8B\tf\t7A\t7C\tr\tf\t8B\t11C\t11C\t\nSaturday : 7A\t11C\tf\t7C\tr\t7C\t10C\tf\t9A"
p104
sg18
S'Mulayam Modi'
p105
sg20
(lp106
(lp107
S'8b'
p108
aS'f'
p109
aS'7c'
p110
aS'11c'
p111
aS'11c'
p112
aS'7c'
p113
aS'7a'
p114
aS'f'
p115
aa(lp116
S'8b'
p117
aS'11c'
p118
aS'9a'
p119
aS'f'
p120
aS'8b'
p121
aS'7c'
p122
aS'7a'
p123
aS'f'
p124
aa(lp125
S'8b'
p126
aS'7c'
p127
aS'f'
p128
aS'10c'
p129
aS'f'
p130
aS'11c'
p131
aS'7a'
p132
aS'f'
p133
aa(lp134
g10
aS'8b'
p135
aS'11c'
p136
aS'f'
p137
ag11
aS'7a'
p138
aS'f'
p139
aS'11c'
p140
aa(lp141
S'8b'
p142
aS'f'
p143
aS'7a'
p144
aS'7c'
p145
aS'f'
p146
aS'8b'
p147
aS'11c'
p148
aS'11c'
p149
aa(lp150
S'7a'
p151
aS'11c'
p152
aS'f'
p153
aS'7c'
p154
aS'7c'
p155
aS'10c'
p156
aS'f'
p157
aS'9a'
p158
aasg74
S'male'
p159
sg77
I00
sg78
g134
sg79
S'(He is absent today.)\n\nSession:1\t2\x0e\t3\t4\t\tRECESS\t\t5\t6\t7\t\t8\t\nStatus :8B \t8B \t11C \tlibrary \tSTAFF ROOM\t7C \t7A \tlibrary \t11C \t'
p160
sg81
(lp161
S'10'
p162
aS'11'
p163
aS'7'
p164
aS'8'
p165
aS'9'
p166
asg89
S'staff room'
p167
sg91
g101
sg92
S'library'
p168
sg94
g102
sg95
(lp169
g97
a(lp170
g4
ag98
ag11
aI4
aasS'subjects'
p171
(lp172
S'economics'
p173
aS'hindi'
p174
aS'social science'
p175
asS'history'
p176
(dp177
sbag10
aI0
aag170
asg171
(lp178
S'Civics'
p179
aS'Music'
p180
asg176
(dp181
sba(i__main__
Teacher
p182
(dp183
g6
S'She is most probably in class 11S.'
p184
sg8
(dp185
I0
I00
sI1
I00
sI2
I00
sI3
S'3c'
p186
sI4
S'6a'
p187
sI5
I00
sI6
I00
sI7
I00
ssg12
S'Sonia'
p188
sg14
S'Singh'
p189
sg16
S"Note: 'f' stands for free session and 'r' stands for recess.\n\nSession  : 1\t2\t3\t4\tr\t5\t6\t7\t8\t\n________________________________________________________________________________\n\nMonday   : 10A\t10A\t11S\tf\tr\t12S\t9C\t10C\tf\t\nTuesday  : 10A\t12S\t12S\t11S\tr\tf\tf\t10B\t11S\t\nWednesday: 11S\t11S\t10A\t10B\tr\tf\t9B\tf\tf\t\nThursday : 10C\t11S\t12S\tf\tr\tf\t10A\t12S\t12S   <- today\nFriday   : f\t11S\t9A\t12S\tr\t11S\tf\t12S\t12S\t\nSaturday : f\tf\t11S\t11S\tr\t12S\t12S\tf\tf"
p190
sg18
S'Sonia Singh'
p191
sg20
(lp192
(lp193
S'10a'
p194
aS'10a'
p195
aS'11s'
p196
aS'f'
p197
aS'12s'
p198
aS'9c'
p199
aS'10c'
p200
aS'f'
p201
aa(lp202
S'10a'
p203
aS'12s'
p204
aS'12s'
p205
aS'11s'
p206
aS'f'
p207
aS'f'
p208
aS'10b'
p209
aS'11s'
p210
aa(lp211
S'11s'
p212
aS'11s'
p213
aS'10a'
p214
aS'10b'
p215
aS'f'
p216
aS'9b'
p217
aS'f'
p218
aS'f'
p219
aa(lp220
S'10c'
p221
aS'11s'
p222
aS'12s'
p223
ag186
ag187
aS'10a'
p224
aS'12s'
p225
aS'12s'
p226
aa(lp227
S'f'
p228
aS'11s'
p229
aS'9a'
p230
aS'12s'
p231
aS'11s'
p232
aS'f'
p233
aS'12s'
p234
aS'12s'
p235
aa(lp236
S'f'
p237
aS'f'
p238
aS'11s'
p239
aS'11s'
p240
aS'12s'
p241
aS'12s'
p242
aS'f'
p243
aS'f'
p244
aasg74
S'female'
p245
sg76
g222
sg77
I01
sg78
g220
sg79
S'Session:1\t2\x0e\t3\t4\t\tRECESS\t\t5\t\t6\t7\t8\t\nStatus :10C \t11S \t12S \t3C(proxy) \tCHEMISTRY LAB\t6A(proxy) \t10A \t12S \t12S \t'
p246
sg81
(lp247
S'10'
p248
aS'11'
p249
aS'12'
p250
aS'9'
p251
asg89
S'chemistry lab'
p252
sg91
g185
sg92
S'chemistry lab'
p253
sg94
g191
sg95
(lp254
(lp255
g182
a(i__main__
Teacher
p256
(dp257
g6
S'He is absent today.'
p258
sg8
(dp259
I0
I00
sI1
I00
sI2
I00
sI3
g182
sI4
g182
sI5
I00
sI6
I00
sI7
(i__main__
Teacher
p260
(dp261
g6
S'He is most probably in class 10A.'
p262
sg8
(dp263
I0
I00
sI1
I00
sI2
I00
sI3
I00
sI4
I00
sI5
I00
sI6
I00
sI7
S'7a'
p264
ssg12
S'Albert'
p265
sg14
S'Newton'
p266
sg16
S"Note: 'f' stands for free session and 'r' stands for recess.\n\nSession  : 1\t2\t3\t4\tr\t5\t6\t7\t8\t\n________________________________________________________________________________\n\nMonday   : 9A\t9B\t10A\t10B\tr\tf\t11S\t12S\tf\t\nTuesday  : 10B\t10A\tf\tf\tr\t9A\t12S\t12S\tf\t\nWednesday: 10B\t12S\t10B\tf\tr\tf\t9A\tf\t10A\t\nThursday : 11S\t10A\t10B\t11S\tr\t12S\t9B\tf\tf   <- today\nFriday   : f\t9A\t9B\t10A\tr\t10B\t11S\t10A\tf\t\nSaturday : f\t12S\t10A\t10B\tr\t9A\t9B\t12S\tf"
p267
sg18
S'Albert Newton'
p268
sg20
(lp269
(lp270
S'9a'
p271
aS'9b'
p272
aS'10a'
p273
aS'10b'
p274
aS'f'
p275
aS'11s'
p276
aS'12s'
p277
aS'f'
p278
aa(lp279
S'10b'
p280
aS'10a'
p281
aS'f'
p282
aS'f'
p283
aS'9a'
p284
aS'12s'
p285
aS'12s'
p286
aS'f'
p287
aa(lp288
S'10b'
p289
aS'12s'
p290
aS'10b'
p291
aS'f'
p292
aS'f'
p293
aS'9a'
p294
aS'f'
p295
aS'10a'
p296
aa(lp297
S'11s'
p298
aS'10a'
p299
aS'10b'
p300
aS'11s'
p301
aS'12s'
p302
aS'9b'
p303
aS'f'
p304
ag264
aa(lp305
S'f'
p306
aS'9a'
p307
aS'9b'
p308
aS'10a'
p309
aS'10b'
p310
aS'11s'
p311
aS'10a'
p312
aS'f'
p313
aa(lp314
S'f'
p315
aS'12s'
p316
aS'10a'
p317
aS'10b'
p318
aS'9a'
p319
aS'9b'
p320
aS'12s'
p321
aS'f'
p322
aasg74
S'male'
p323
sg76
g299
sg77
I01
sg78
g297
sg79
S"Note:'*' denotes that Albert is free in, or somewhere around physics lab.\n\nSession:1\t2\x0e\t3\t4\tRECESS\t5\t6\t7\t\t8\t\t\nStatus :11S \t10A \t10B \t11S \tGROUND\t12S \t9B \tphysics lab* \t7A(proxy) \t"
p324
sg81
(lp325
S'10'
p326
aS'11'
p327
aS'12'
p328
aS'9'
p329
asg89
S'ground'
p330
sg91
g263
sg92
S'physics lab'
p331
sg94
g265
sg95
(lp332
(lp333
g260
ag256
ag264
aI7
aasg171
(lp334
S' maths'
p335
aS'physics'
p336
asg176
(dp337
sbssg12
S'Narendra'
p338
sg14
S'Gandhi'
p339
sg16
S"Note: 'f' stands for free session and 'r' stands for recess.\n\nSession  : 1\t2\t3\t4\tr\t5\t6\t7\t8\t\n________________________________________________________________________________\n\nMonday   : 5A\tf\t6A\t7B\tr\t8A\t7A\t6A\tf\t\nTuesday  : 5A\t6A\tf\tf\tr\t5A\t6A\tf\t7B\t\nWednesday: 5A\t7A\t6A\tf\tr\t7B\t5B\tf\t6A\t\nThursday : f\t7B\tf\t3C\tr\t6A\t5A\tf\t7A   <- today\nFriday   : 5A\tf\t7C\t6A\tr\tf\t5A\tf\tf\t\nSaturday : f\t7B\t5A\tf\tr\t7A\t8A\tf\t6A"
p340
sg18
S'Narendra Gandhi'
p341
sg20
(lp342
(lp343
S'5a'
p344
aS'f'
p345
aS'6a'
p346
aS'7b'
p347
aS'8a'
p348
aS'7a'
p349
aS'6a'
p350
aS'f'
p351
aa(lp352
S'5a'
p353
aS'6a'
p354
aS'f'
p355
aS'f'
p356
aS'5a'
p357
aS'6a'
p358
aS'f'
p359
aS'7b'
p360
aa(lp361
S'5a'
p362
aS'7a'
p363
aS'6a'
p364
aS'f'
p365
aS'7b'
p366
aS'5b'
p367
aS'f'
p368
aS'6a'
p369
aa(lp370
S'f'
p371
aS'7b'
p372
aS'f'
p373
ag186
ag187
aS'5a'
p374
aS'f'
p375
ag264
aa(lp376
S'5a'
p377
aS'f'
p378
aS'7c'
p379
aS'6a'
p380
aS'f'
p381
aS'5a'
p382
aS'f'
p383
aS'f'
p384
aa(lp385
S'f'
p386
aS'7b'
p387
aS'5a'
p388
aS'f'
p389
aS'7a'
p390
aS'8a'
p391
aS'f'
p392
aS'6a'
p393
aasg74
S'male'
p394
sg77
I00
sg78
g370
sg79
S'(He is absent today.)\n\nSession:1\t\t2\x0e\t3\t\t4\tRECESS\t5\t6\t7\t\t8\t\nStatus :library \t7B \tlibrary \t3C \tGROUND\t6A \t5A \tlibrary \t7A \t'
p395
sg81
(lp396
S'5'
p397
aS'6'
p398
aS'7'
p399
aS'8'
p400
asg89
S'ground'
p401
sg91
g259
sg92
S'library'
p402
sg94
g338
sg95
(lp403
g255
a(lp404
g182
ag256
ag187
aI4
aag333
asg171
(lp405
S'Gujarati'
p406
aS'Spanish'
p407
asg176
(dp408
sbag186
aI3
aag404
asg171
(lp409
S'chemistry'
p410
asg176
(dp411
sbag260
asS'pres_teachers'
p412
(lp413
g182
ag260
ag4
a(i__main__
Teacher
p414
(dp415
g6
S'She is most probably in class 12S.'
p416
sg8
(dp417
I0
I00
sI1
I00
sI2
I00
sI3
I00
sI4
I00
sI5
I00
sI6
I00
sI7
I00
ssg12
S'Sonia'
p418
sg14
S'Yadav'
p419
sg16
S"Note: 'f' stands for free session and 'r' stands for recess.\n\nSession  : 1\t2\t3\t4\tr\t5\t6\t7\t8\t\n________________________________________________________________________________\n\nMonday   : 10B\t10B\t12S\t11S\tr\t11S\tf\t10A\t10A\t\nTuesday  : f\t11S\tf\t12S\tr\t12S\tf\t9B\t9B\t\nWednesday: 9C\t9C\t12S\tf\tr\t9B\t11S\tf\tf\t\nThursday : 12S\t12S\t11S\tf\tr\t9A\t9A\t10B\t11S   <- today\nFriday   : f\t10C\t10C\t9A\tr\tf\t12S\t11S\t11S\t\nSaturday : f\t11S\t12S\t12S\tr\t9C\tf\t10C\t10A"
p420
sg18
S'Sonia Yadav'
p421
sg20
(lp422
(lp423
S'10b'
p424
aS'10b'
p425
aS'12s'
p426
aS'11s'
p427
aS'11s'
p428
aS'f'
p429
aS'10a'
p430
aS'10a'
p431
aa(lp432
S'f'
p433
aS'11s'
p434
aS'f'
p435
aS'12s'
p436
aS'12s'
p437
aS'f'
p438
aS'9b'
p439
aS'9b'
p440
aa(lp441
S'9c'
p442
aS'9c'
p443
aS'12s'
p444
aS'f'
p445
aS'9b'
p446
aS'11s'
p447
aS'f'
p448
aS'f'
p449
aa(lp450
S'12s'
p451
aS'12s'
p452
aS'11s'
p453
aS'f'
p454
aS'9a'
p455
aS'9a'
p456
aS'10b'
p457
aS'11s'
p458
aa(lp459
S'f'
p460
aS'10c'
p461
aS'10c'
p462
aS'9a'
p463
aS'f'
p464
aS'12s'
p465
aS'11s'
p466
aS'11s'
p467
aa(lp468
S'f'
p469
aS'11s'
p470
aS'12s'
p471
aS'12s'
p472
aS'9c'
p473
aS'f'
p474
aS'10c'
p475
aS'10a'
p476
aasg74
S'female'
p477
sg76
g452
sg77
I01
sg78
g450
sg79
S"Note:'*' denotes that Sonia is free in, or somewhere around biology lab.\n\nSession:1\t2\x0e\t3\t4\t\tRECESS\t5\t6\t7\t8\t\nStatus :12S \t12S \t11S \tbiology lab* \tGROUND\t9A \t9A \t10B \t11S \t"
p478
sg81
(lp479
S'10'
p480
aS'11'
p481
aS'12'
p482
aS'9'
p483
asg89
S'ground'
p484
sg91
g417
sg92
S'biology lab'
p485
sg94
g421
sg95
(lp486
sg171
(lp487
S'biology'
p488
asg176
(dp489
sbasS'abs_teachers'
p490
(lp491
g256
ag98
asS'custom_proxies'
p492
(lp493
sS'removed_proxies'
p494
(lp495
sS's_proxies'
p496
(lp497
g97
ag255
a(lp498
g414
ag256
ag186
aI3
aag404
a(lp499
g4
ag256
ag187
aI4
aag170
a(lp500
g182
ag98
ag11
aI4
aag333
a(lp501
g260
ag98
ag140
aI7
aasS'gen_proxies'
p502
(lp503
g97
ag255
ag404
ag170
ag333
asS'clamoni'
p504
(dp505
g372
(lp506
I1
asg264
(lp507
I5
asg10
(lp508
I1
asg136
(lp509
I2
aI7
asg374
(lp510
I5
assS'teachers'
p511
(lp512
g98
ag4
ag260
ag414
ag256
ag182
asS'comp_proxies'
p513
(lp514
g97
ag255
ag404
ag170
ag333
asg95
(lp515
g97
ag255
ag404
ag170
ag333
asb.