(i__main__
Stats
p0
(dp1
S'proxy_teachers'
p2
(lp3
(i__main__
Teacher
p4
(dp5
S'status'
p6
S'He is most probably in class 3A.'
p7
sS'assigned'
p8
(dp9
I0
S'8b'
p10
sI1
I00
sI2
I00
sI3
I00
sI4
I00
sI5
I00
sI6
I00
sI7
I00
ssS'first_name'
p11
S'Rahul'
p12
sS'last_name'
p13
S'Yadav'
p14
sS'sched'
p15
S"Note: 'f' stands for free session and 'r' stands for recess.\n\nSession  : 1\t2\t3\t4\tr\t5\t6\t7\t8\t\n________________________________________________________________________________\n\nMonday   : f\t6B\t4A\t5C\tr\t1A\t2A\t3A\tf\t\nTuesday  : f\tf\t2C\t1A\tr\t3A\t5A\t1B\t4C\t\nWednesday: f\t1C\t4B\t4A\tr\t4C\t7B\tf\t3C\t\nThursday : f\t3B\t2A\t2B\tr\tf\t6A\t5C\t7C\t\nFriday   : f\t5A\t7B\t2C\tr\t3C\t6C\t5B\tf\t\nSaturday : f\t1C\t4B\t2B\tr\tf\t5B\t3B\t7A"
p16
sS'name'
p17
S'Rahul Yadav'
p18
sS'schedule'
p19
(lp20
(lp21
S'f'
p22
aS'6b'
p23
aS'4a'
p24
aS'5c'
p25
aS'1a'
p26
aS'2a'
p27
aS'3a'
p28
aS'f'
p29
aa(lp30
S'f'
p31
aS'f'
p32
aS'2c'
p33
aS'1a'
p34
aS'3a'
p35
aS'5a'
p36
aS'1b'
p37
aS'4c'
p38
aa(lp39
S'f'
p40
aS'1c'
p41
aS'4b'
p42
aS'4a'
p43
aS'4c'
p44
aS'7b'
p45
aS'f'
p46
aS'3c'
p47
aa(lp48
S'f'
p49
aS'3b'
p50
aS'2a'
p51
aS'2b'
p52
aS'f'
p53
aS'6a'
p54
aS'5c'
p55
aS'7c'
p56
aa(lp57
S'f'
p58
aS'5a'
p59
aS'7b'
p60
aS'2c'
p61
aS'3c'
p62
aS'6c'
p63
aS'5b'
p64
aS'f'
p65
aa(lp66
S'f'
p67
aS'1c'
p68
aS'4b'
p69
aS'2b'
p70
aS'f'
p71
aS'5b'
p72
aS'3b'
p73
aS'7a'
p74
aasS'gender'
p75
S'male'
p76
sS'is_present'
p77
I01
sS'today_sched'
p78
(lp79
g10
ag23
ag24
ag25
ag26
ag27
ag28
ag29
asS'tod_sched'
p80
S"Note:'*' denotes that Rahul is free in, or somewhere around music room.\n\nSession : 1\t\t2\t3\t4\tRECESS\t\t5\t6\t7\x0e\t8\t\t\nPosition: 8B(proxy) \t6B \t4A \t5C \tSTAFF ROOM\t1A \t2A \t3A \tmusic room* \t"
p81
sS'classes'
p82
(lp83
S'1'
p84
aS'2'
p85
aS'3'
p86
aS'4'
p87
aS'5'
p88
aS'6'
p89
asS'recess_pos'
p90
S'staff room'
p91
sS'pres_pos'
p92
g28
sS'free_pos'
p93
S'music room'
p94
sS'title_name'
p95
g12
sS'proxies'
p96
(lp97
(lp98
g4
a(i__main__
Teacher
p99
(dp100
g6
S'He is absent today.'
p101
sg8
(dp102
I0
g4
sI1
I00
sI2
I00
sI3
I00
sI4
I00
sI5
(i__main__
Teacher
p103
(dp104
g6
S'She is most probably in class 10A.'
p105
sg8
(dp106
I0
I00
sI1
I00
sI2
I00
sI3
I00
sI4
I00
sI5
S'7c'
p107
sI6
I00
sI7
I00
ssg11
S'Sonia'
p108
sg13
S'Yadav'
p109
sg15
S"Note: 'f' stands for free session and 'r' stands for recess.\n\nSession  : 1\t2\t3\t4\tr\t5\t6\t7\t8\t\n________________________________________________________________________________\n\nMonday   : 10B\t10B\t12S\t11S\tr\t11S\tf\t10A\t10A\t\nTuesday  : f\t11S\tf\t12S\tr\t12S\tf\t9B\t9B\t\nWednesday: 9C\t9C\t12S\tf\tr\t9B\t11S\tf\tf\t\nThursday : 12S\t12S\t11S\tf\tr\t9A\t9A\t10B\t11S\t\nFriday   : f\t10C\t10C\t9A\tr\tf\t12S\t11S\t11S\t\nSaturday : f\t11S\t12S\t12S\tr\t9C\tf\t10C\t10A"
p110
sg17
S'Sonia Yadav'
p111
sg19
(lp112
(lp113
S'10b'
p114
aS'10b'
p115
aS'12s'
p116
aS'11s'
p117
aS'11s'
p118
aS'f'
p119
aS'10a'
p120
aS'10a'
p121
aa(lp122
S'f'
p123
aS'11s'
p124
aS'f'
p125
aS'12s'
p126
aS'12s'
p127
aS'f'
p128
aS'9b'
p129
aS'9b'
p130
aa(lp131
S'9c'
p132
aS'9c'
p133
aS'12s'
p134
aS'f'
p135
aS'9b'
p136
aS'11s'
p137
aS'f'
p138
aS'f'
p139
aa(lp140
S'12s'
p141
aS'12s'
p142
aS'11s'
p143
aS'f'
p144
aS'9a'
p145
aS'9a'
p146
aS'10b'
p147
aS'11s'
p148
aa(lp149
S'f'
p150
aS'10c'
p151
aS'10c'
p152
aS'9a'
p153
aS'f'
p154
aS'12s'
p155
aS'11s'
p156
aS'11s'
p157
aa(lp158
S'f'
p159
aS'11s'
p160
aS'12s'
p161
aS'12s'
p162
aS'9c'
p163
aS'f'
p164
aS'10c'
p165
aS'10a'
p166
aasg75
S'female'
p167
sg77
I01
sg78
(lp168
g114
ag115
ag116
ag117
ag118
ag107
ag120
ag121
asg80
S'Session : 1\t2\t3\t4\tRECESS\t5\t6\t\t7\x0e\t8\t\nPosition: 10B \t10B \t12S \t11S \tGROUND\t11S \t7C(proxy) \t10A \t10A \t'
p169
sg82
(lp170
S'10'
p171
aS'11'
p172
aS'12'
p173
aS'9'
p174
asg90
S'ground'
p175
sg92
g120
sg93
S'biology lab'
p176
sg95
g111
sg96
(lp177
(lp178
g103
ag99
ag107
aI5
aasS'subjects'
p179
(lp180
S'biology'
p181
asS'history'
p182
(dp183
sbsI6
I00
sI7
I00
ssg11
S'Mulayam'
p184
sg13
S'Modi'
p185
sg15
S"Note: 'f' stands for free session and 'r' stands for recess.\n\nSession  : 1\t2\t3\t4\tr\t5\t6\t7\t8\t\n________________________________________________________________________________\n\nMonday   : 8B\tf\t7C\t11C\tr\t11C\t7C\t7A\tf\t\nTuesday  : 8B\t11C\t9A\tf\tr\t8B\t7C\t7A\tf\t\nWednesday: 8B\t7C\tf\t10C\tr\tf\t11C\t7A\tf\t\nThursday : 8B\t8B\t11C\tf\tr\t7C\t7A\tf\t11C\t\nFriday   : 8B\tf\t7A\t7C\tr\tf\t8B\t11C\t11C\t\nSaturday : 7A\t11C\tf\t7C\tr\t7C\t10C\tf\t9A"
p186
sg17
S'Mulayam Modi'
p187
sg19
(lp188
(lp189
g10
aS'f'
p190
aS'7c'
p191
aS'11c'
p192
aS'11c'
p193
ag107
aS'7a'
p194
aS'f'
p195
aa(lp196
S'8b'
p197
aS'11c'
p198
aS'9a'
p199
aS'f'
p200
aS'8b'
p201
aS'7c'
p202
aS'7a'
p203
aS'f'
p204
aa(lp205
S'8b'
p206
aS'7c'
p207
aS'f'
p208
aS'10c'
p209
aS'f'
p210
aS'11c'
p211
aS'7a'
p212
aS'f'
p213
aa(lp214
S'8b'
p215
aS'8b'
p216
aS'11c'
p217
aS'f'
p218
aS'7c'
p219
aS'7a'
p220
aS'f'
p221
aS'11c'
p222
aa(lp223
S'8b'
p224
aS'f'
p225
aS'7a'
p226
aS'7c'
p227
aS'f'
p228
aS'8b'
p229
aS'11c'
p230
aS'11c'
p231
aa(lp232
S'7a'
p233
aS'11c'
p234
aS'f'
p235
aS'7c'
p236
aS'7c'
p237
aS'10c'
p238
aS'f'
p239
aS'9a'
p240
aasg75
S'male'
p241
sg77
I00
sg78
g189
sg80
S'Session : 1\t2\t\t3\t4\tRECESS\t\t5\t6\t7\x0e\t8\t\t\nPosition: 8B \tlibrary \t7C \t11C \tSTAFF ROOM\t11C \t7C \t7A \tlibrary \t'
p242
sg82
(lp243
S'10'
p244
aS'11'
p245
aS'7'
p246
aS'8'
p247
aS'9'
p248
asg90
S'staff room'
p249
sg93
S'library'
p250
sg95
g184
sg96
(lp251
g98
ag178
asg179
(lp252
S'economics'
p253
aS'hindi'
p254
aS'social science'
p255
asg182
(dp256
sbag10
aI0
aasg179
(lp257
S'Civics'
p258
aS'Music'
p259
asg182
(dp260
sbag103
a(i__main__
Teacher
p261
(dp262
g6
S'He is most probably in class 6A.'
p263
sg8
(dp264
I0
I00
sI1
S'10a'
p265
sI2
I00
sI3
I00
sI4
I00
sI5
I00
sI6
I00
sI7
I00
ssg11
S'Narendra'
p266
sg13
S'Gandhi'
p267
sg15
S"Note: 'f' stands for free session and 'r' stands for recess.\n\nSession  : 1\t2\t3\t4\tr\t5\t6\t7\t8\t\n________________________________________________________________________________\n\nMonday   : 5A\tf\t6A\t7B\tr\t8A\t7A\t6A\tf\t\nTuesday  : 5A\t6A\tf\tf\tr\t5A\t6A\tf\t7B\t\nWednesday: 5A\t7A\t6A\tf\tr\t7B\t5B\tf\t6A\t\nThursday : f\t7B\tf\t3C\tr\t6A\t5A\tf\t7A\t\nFriday   : 5A\tf\t7C\t6A\tr\tf\t5A\tf\tf\t\nSaturday : f\t7B\t5A\tf\tr\t7A\t8A\tf\t6A"
p268
sg17
S'Narendra Gandhi'
p269
sg19
(lp270
(lp271
S'5a'
p272
aS'f'
p273
aS'6a'
p274
aS'7b'
p275
aS'8a'
p276
aS'7a'
p277
aS'6a'
p278
aS'f'
p279
aa(lp280
S'5a'
p281
aS'6a'
p282
aS'f'
p283
aS'f'
p284
aS'5a'
p285
aS'6a'
p286
aS'f'
p287
aS'7b'
p288
aa(lp289
S'5a'
p290
aS'7a'
p291
aS'6a'
p292
aS'f'
p293
aS'7b'
p294
aS'5b'
p295
aS'f'
p296
aS'6a'
p297
aa(lp298
S'f'
p299
aS'7b'
p300
aS'f'
p301
aS'3c'
p302
aS'6a'
p303
aS'5a'
p304
aS'f'
p305
aS'7a'
p306
aa(lp307
S'5a'
p308
aS'f'
p309
aS'7c'
p310
aS'6a'
p311
aS'f'
p312
aS'5a'
p313
aS'f'
p314
aS'f'
p315
aa(lp316
S'f'
p317
aS'7b'
p318
aS'5a'
p319
aS'f'
p320
aS'7a'
p321
aS'8a'
p322
aS'f'
p323
aS'6a'
p324
aasg75
S'male'
p325
sg77
I01
sg78
(lp326
g272
ag265
ag274
ag275
ag276
ag277
ag278
ag279
asg80
S"Note:'*' denotes that Narendra is free in, or somewhere around library.\n\nSession : 1\t2\t\t3\t4\tRECESS\t5\t6\t7\x0e\t8\t\t\nPosition: 5A \t10A(proxy) \t6A \t7B \tGROUND\t8A \t7A \t6A \tlibrary* \t"
p327
sg82
(lp328
S'5'
p329
aS'6'
p330
aS'7'
p331
aS'8'
p332
asg90
S'ground'
p333
sg92
g278
sg93
S'library'
p334
sg95
g266
sg96
(lp335
(lp336
g261
a(i__main__
Teacher
p337
(dp338
g6
S'She is absent today.'
p339
sg8
(dp340
I0
I00
sI1
g261
sI2
I00
sI3
I00
sI4
I00
sI5
I00
sI6
I00
sI7
I00
ssg11
S'Sonia'
p341
sg13
S'Singh'
p342
sg15
S"Note: 'f' stands for free session and 'r' stands for recess.\n\nSession  : 1\t2\t3\t4\tr\t5\t6\t7\t8\t\n________________________________________________________________________________\n\nMonday   : 10A\t10A\t11S\tf\tr\t12S\t9C\t10C\tf\t\nTuesday  : 10A\t12S\t12S\t11S\tr\tf\tf\t10B\t11S\t\nWednesday: 11S\t11S\t10A\t10B\tr\tf\t9B\tf\tf\t\nThursday : 10C\t11S\t12S\tf\tr\tf\t10A\t12S\t12S\t\nFriday   : f\t11S\t9A\t12S\tr\t11S\tf\t12S\t12S\t\nSaturday : f\tf\t11S\t11S\tr\t12S\t12S\tf\tf"
p343
sg17
S'Sonia Singh'
p344
sg19
(lp345
(lp346
S'10a'
p347
ag265
aS'11s'
p348
aS'f'
p349
aS'12s'
p350
aS'9c'
p351
aS'10c'
p352
aS'f'
p353
aa(lp354
S'10a'
p355
aS'12s'
p356
aS'12s'
p357
aS'11s'
p358
aS'f'
p359
aS'f'
p360
aS'10b'
p361
aS'11s'
p362
aa(lp363
S'11s'
p364
aS'11s'
p365
aS'10a'
p366
aS'10b'
p367
aS'f'
p368
aS'9b'
p369
aS'f'
p370
aS'f'
p371
aa(lp372
S'10c'
p373
aS'11s'
p374
aS'12s'
p375
aS'f'
p376
aS'f'
p377
aS'10a'
p378
aS'12s'
p379
aS'12s'
p380
aa(lp381
S'f'
p382
aS'11s'
p383
aS'9a'
p384
aS'12s'
p385
aS'11s'
p386
aS'f'
p387
aS'12s'
p388
aS'12s'
p389
aa(lp390
S'f'
p391
aS'f'
p392
aS'11s'
p393
aS'11s'
p394
aS'12s'
p395
aS'12s'
p396
aS'f'
p397
aS'f'
p398
aasg75
S'female'
p399
sg77
I00
sg78
g346
sg80
S'Session : 1\t2\t3\t4\t\tRECESS\t\t5\t6\t7\x0e\t8\t\t\nPosition: 10A \t10A \t11S \tchemistry lab \tCHEMISTRY LAB\t12S \t9C \t10C \tchemistry lab \t'
p400
sg82
(lp401
S'10'
p402
aS'11'
p403
aS'12'
p404
aS'9'
p405
asg90
S'chemistry lab'
p406
sg93
S'chemistry lab'
p407
sg95
g344
sg96
(lp408
g336
asg179
(lp409
S'chemistry'
p410
asg182
(dp411
sbag265
aI1
aasg179
(lp412
S'Gujarati'
p413
aS'Spanish'
p414
asg182
(dp415
sbasS'pres_teachers'
p416
(lp417
g261
ag4
ag103
asS'abs_teachers'
p418
(lp419
g99
ag337
asS'custom_proxies'
p420
(lp421
sS'removed_proxies'
p422
(lp423
sS'gen_proxies'
p424
(lp425
g98
ag178
ag336
asS'clamoni'
p426
(dp427
g191
(lp428
I2
asg192
(lp429
I3
aI4
asg194
(lp430
I6
asg352
(lp431
I6
asg351
(lp432
I5
asg347
(lp433
I0
asg350
(lp434
I4
asg348
(lp435
I2
assS'teachers'
p436
(lp437
g99
ag4
ag261
ag337
ag103
asg96
(lp438
g98
ag336
ag178
asb.