(i__main__
Stats
p0
(dp1
S'proxy_teachers'
p2
(lp3
(i__main__
Teacher
p4
(dp5
S'status'
p6
S'He is most probably in class 8B (in place of Mulayam).'
p7
sS'assigned'
p8
(dp9
I0
S'8b'
p10
sI1
I00
sI2
I00
sI3
I00
sI4
I00
sI5
I00
sI6
I00
sI7
I00
ssS'first_name'
p11
S'Rahul'
p12
sS'last_name'
p13
S'Yadav'
p14
sS'sched'
p15
S"Note: 'f' stands for free session and 'r' stands for recess.\n\nSession  : 1\t2\t3\t4\tr\t5\t6\t7\t8\t\n________________________________________________________________________________\n\nMonday   : f\t6B\t4A\t5C\tr\t1A\t2A\t3A\tf   <- today\nTuesday  : f\tf\t2C\t1A\tr\t3A\t5A\t1B\t4C\t\nWednesday: f\t1C\t4B\t4A\tr\t4C\t7B\tf\t3C\t\nThursday : f\t3B\t2A\t2B\tr\tf\t6A\t5C\t7C\t\nFriday   : f\t5A\t7B\t2C\tr\t3C\t6C\t5B\tf\t\nSaturday : f\t1C\t4B\t2B\tr\tf\t5B\t3B\t7A"
p16
sS'name'
p17
S'Rahul Yadav'
p18
sS'schedule'
p19
(lp20
(lp21
g10
aS'6b'
p22
aS'4a'
p23
aS'5c'
p24
aS'1a'
p25
aS'2a'
p26
aS'3a'
p27
aS'f'
p28
aa(lp29
S'f'
p30
aS'f'
p31
aS'2c'
p32
aS'1a'
p33
aS'3a'
p34
aS'5a'
p35
aS'1b'
p36
aS'4c'
p37
aa(lp38
S'f'
p39
aS'1c'
p40
aS'4b'
p41
aS'4a'
p42
aS'4c'
p43
aS'7b'
p44
aS'f'
p45
aS'3c'
p46
aa(lp47
S'f'
p48
aS'3b'
p49
aS'2a'
p50
aS'2b'
p51
aS'f'
p52
aS'6a'
p53
aS'5c'
p54
aS'7c'
p55
aa(lp56
S'f'
p57
aS'5a'
p58
aS'7b'
p59
aS'2c'
p60
aS'3c'
p61
aS'6c'
p62
aS'5b'
p63
aS'f'
p64
aa(lp65
S'f'
p66
aS'1c'
p67
aS'4b'
p68
aS'2b'
p69
aS'f'
p70
aS'5b'
p71
aS'3b'
p72
aS'7a'
p73
aasS'gender'
p74
S'male'
p75
sS'pres_pos'
p76
g10
sS'is_present'
p77
I01
sS'today_sched'
p78
g21
sS'tod_sched'
p79
S"Note:'*' denotes that Rahul is free in, or somewhere around music room.\n\nSession:1\x0e\t\t2\t3\t4\tRECESS\t\t5\t6\t7\t8\t\t\nStatus :8B(proxy) \t6B \t4A \t5C \tSTAFF ROOM\t1A \t2A \t3A \tmusic room* \t"
p80
sS'classes'
p81
(lp82
S'1'
p83
aS'2'
p84
aS'3'
p85
aS'4'
p86
aS'5'
p87
aS'6'
p88
asS'recess_pos'
p89
S'staff room'
p90
sS'saved_assignments'
p91
g9
sS'free_pos'
p92
S'music room'
p93
sS'title_name'
p94
g12
sS'proxies'
p95
(lp96
(lp97
g4
a(i__main__
Teacher
p98
(dp99
g6
S'He is absent today.'
p100
sg8
(dp101
I0
g4
sI1
I00
sI2
I00
sI3
I00
sI4
(i__main__
Teacher
p102
(dp103
g6
S'He is most probably in class 9A.'
p104
sg8
(dp105
I0
I00
sI1
I00
sI2
I00
sI3
I00
sI4
S'11c'
p106
sI5
I00
sI6
I00
sI7
I00
ssg11
S'Albert'
p107
sg13
S'Newton'
p108
sg15
S"Note: 'f' stands for free session and 'r' stands for recess.\n\nSession  : 1\t2\t3\t4\tr\t5\t6\t7\t8\t\n________________________________________________________________________________\n\nMonday   : 9A\t9B\t10A\t10B\tr\tf\t11S\t12S\tf   <- today\nTuesday  : 10B\t10A\tf\tf\tr\t9A\t12S\t12S\tf\t\nWednesday: 10B\t12S\t10B\tf\tr\tf\t9A\tf\t10A\t\nThursday : 11S\t10A\t10B\t11S\tr\t12S\t9B\tf\tf\t\nFriday   : f\t9A\t9B\t10A\tr\t10B\t11S\t10A\tf\t\nSaturday : f\t12S\t10A\t10B\tr\t9A\t9B\t12S\tf"
p109
sg17
S'Albert Newton'
p110
sg19
(lp111
(lp112
S'9a'
p113
aS'9b'
p114
aS'10a'
p115
aS'10b'
p116
ag106
aS'11s'
p117
aS'12s'
p118
aS'f'
p119
aa(lp120
S'10b'
p121
aS'10a'
p122
aS'f'
p123
aS'f'
p124
aS'9a'
p125
aS'12s'
p126
aS'12s'
p127
aS'f'
p128
aa(lp129
S'10b'
p130
aS'12s'
p131
aS'10b'
p132
aS'f'
p133
aS'f'
p134
aS'9a'
p135
aS'f'
p136
aS'10a'
p137
aa(lp138
S'11s'
p139
aS'10a'
p140
aS'10b'
p141
aS'11s'
p142
aS'12s'
p143
aS'9b'
p144
aS'f'
p145
aS'f'
p146
aa(lp147
S'f'
p148
aS'9a'
p149
aS'9b'
p150
aS'10a'
p151
aS'10b'
p152
aS'11s'
p153
aS'10a'
p154
aS'f'
p155
aa(lp156
S'f'
p157
aS'12s'
p158
aS'10a'
p159
aS'10b'
p160
aS'9a'
p161
aS'9b'
p162
aS'12s'
p163
aS'f'
p164
aasg74
S'male'
p165
sg76
g113
sg77
I01
sg78
g112
sg79
S"Note:'*' denotes that Albert is free in, or somewhere around physics lab.\n\nSession:1\x0e\t2\t3\t4\tRECESS\t5\t\t6\t7\t8\t\t\nStatus :9A \t9B \t10A \t10B \tGROUND\t11C(proxy) \t11S \t12S \tphysics lab* \t"
p166
sg81
(lp167
S'10'
p168
aS'11'
p169
aS'12'
p170
aS'9'
p171
asg89
S'ground'
p172
sg91
g105
sg92
S'physics lab'
p173
sg94
g107
sg95
(lp174
(lp175
g102
ag98
ag106
aI4
aasS'subjects'
p176
(lp177
S' maths'
p178
aS'physics'
p179
asS'history'
p180
(dp181
sbsI5
(i__main__
Teacher
p182
(dp183
g6
S'She is most probably in class 10B.'
p184
sg8
(dp185
I0
I00
sI1
I00
sI2
I00
sI3
I00
sI4
I00
sI5
S'7c'
p186
sI6
I00
sI7
I00
ssg11
S'Sonia'
p187
sg13
S'Yadav'
p188
sg15
S"Note: 'f' stands for free session and 'r' stands for recess.\n\nSession  : 1\t2\t3\t4\tr\t5\t6\t7\t8\t\n________________________________________________________________________________\n\nMonday   : 10B\t10B\t12S\t11S\tr\t11S\tf\t10A\t10A   <- today\nTuesday  : f\t11S\tf\t12S\tr\t12S\tf\t9B\t9B\t\nWednesday: 9C\t9C\t12S\tf\tr\t9B\t11S\tf\tf\t\nThursday : 12S\t12S\t11S\tf\tr\t9A\t9A\t10B\t11S\t\nFriday   : f\t10C\t10C\t9A\tr\tf\t12S\t11S\t11S\t\nSaturday : f\t11S\t12S\t12S\tr\t9C\tf\t10C\t10A"
p189
sg17
S'Sonia Yadav'
p190
sg19
(lp191
(lp192
S'10b'
p193
aS'10b'
p194
aS'12s'
p195
aS'11s'
p196
aS'11s'
p197
ag186
aS'10a'
p198
aS'10a'
p199
aa(lp200
S'f'
p201
aS'11s'
p202
aS'f'
p203
aS'12s'
p204
aS'12s'
p205
aS'f'
p206
aS'9b'
p207
aS'9b'
p208
aa(lp209
S'9c'
p210
aS'9c'
p211
aS'12s'
p212
aS'f'
p213
aS'9b'
p214
aS'11s'
p215
aS'f'
p216
aS'f'
p217
aa(lp218
S'12s'
p219
aS'12s'
p220
aS'11s'
p221
aS'f'
p222
aS'9a'
p223
aS'9a'
p224
aS'10b'
p225
aS'11s'
p226
aa(lp227
S'f'
p228
aS'10c'
p229
aS'10c'
p230
aS'9a'
p231
aS'f'
p232
aS'12s'
p233
aS'11s'
p234
aS'11s'
p235
aa(lp236
S'f'
p237
aS'11s'
p238
aS'12s'
p239
aS'12s'
p240
aS'9c'
p241
aS'f'
p242
aS'10c'
p243
aS'10a'
p244
aasg74
S'female'
p245
sg76
g193
sg77
I01
sg78
g192
sg79
S'Session:1\x0e\t2\t3\t4\tRECESS\t5\t6\t\t7\t8\t\nStatus :10B \t10B \t12S \t11S \tGROUND\t11S \t7C(proxy) \t10A \t10A \t'
p246
sg81
(lp247
S'10'
p248
aS'11'
p249
aS'12'
p250
aS'9'
p251
asg89
S'ground'
p252
sg91
g185
sg92
S'biology lab'
p253
sg94
g190
sg95
(lp254
(lp255
g182
ag98
ag186
aI5
aasg176
(lp256
S'biology'
p257
asg180
(dp258
sbsI6
I00
sI7
I00
ssg11
S'Mulayam'
p259
sg13
S'Modi'
p260
sg15
S"Note: 'f' stands for free session and 'r' stands for recess.\n\nSession  : 1\t2\t3\t4\tr\t5\t6\t7\t8\t\n________________________________________________________________________________\n\nMonday   : 8B\tf\t7C\t11C\tr\t11C\t7C\t7A\tf   <- today\nTuesday  : 8B\t11C\t9A\tf\tr\t8B\t7C\t7A\tf\t\nWednesday: 8B\t7C\tf\t10C\tr\tf\t11C\t7A\tf\t\nThursday : 8B\t8B\t11C\tf\tr\t7C\t7A\tf\t11C\t\nFriday   : 8B\tf\t7A\t7C\tr\tf\t8B\t11C\t11C\t\nSaturday : 7A\t11C\tf\t7C\tr\t7C\t10C\tf\t9A"
p261
sg17
S'Mulayam Modi'
p262
sg19
(lp263
(lp264
g10
aS'f'
p265
aS'7c'
p266
aS'11c'
p267
ag106
ag186
aS'7a'
p268
aS'f'
p269
aa(lp270
S'8b'
p271
aS'11c'
p272
aS'9a'
p273
aS'f'
p274
aS'8b'
p275
aS'7c'
p276
aS'7a'
p277
aS'f'
p278
aa(lp279
S'8b'
p280
aS'7c'
p281
aS'f'
p282
aS'10c'
p283
aS'f'
p284
aS'11c'
p285
aS'7a'
p286
aS'f'
p287
aa(lp288
S'8b'
p289
aS'8b'
p290
aS'11c'
p291
aS'f'
p292
aS'7c'
p293
aS'7a'
p294
aS'f'
p295
aS'11c'
p296
aa(lp297
S'8b'
p298
aS'f'
p299
aS'7a'
p300
aS'7c'
p301
aS'f'
p302
aS'8b'
p303
aS'11c'
p304
aS'11c'
p305
aa(lp306
S'7a'
p307
aS'11c'
p308
aS'f'
p309
aS'7c'
p310
aS'7c'
p311
aS'10c'
p312
aS'f'
p313
aS'9a'
p314
aasg74
S'male'
p315
sg77
I00
sg78
g264
sg79
S'(He is absent today.)\n\nSession:1\x0e\t2\t\t3\t4\tRECESS\t\t5\t6\t7\t8\t\t\nStatus :8B \tlibrary \t7C \t11C \tSTAFF ROOM\t11C \t7C \t7A \tlibrary \t'
p316
sg81
(lp317
S'10'
p318
aS'11'
p319
aS'7'
p320
aS'8'
p321
aS'9'
p322
asg89
S'staff room'
p323
sg91
g101
sg92
S'library'
p324
sg94
g259
sg95
(lp325
g97
ag175
ag255
asg176
(lp326
S'economics'
p327
aS'hindi'
p328
aS'social science'
p329
asg180
(dp330
sbag10
aI0
aasg176
(lp331
S'Civics'
p332
aS'Music'
p333
asg180
(dp334
sba(i__main__
Teacher
p335
(dp336
g6
S'He is most probably in class 5A.'
p337
sg8
(dp338
I0
I00
sI1
S'10a'
p339
sI2
I00
sI3
I00
sI4
I00
sI5
I00
sI6
I00
sI7
I00
ssg11
S'Narendra'
p340
sg13
S'Gandhi'
p341
sg15
S"Note: 'f' stands for free session and 'r' stands for recess.\n\nSession  : 1\t2\t3\t4\tr\t5\t6\t7\t8\t\n________________________________________________________________________________\n\nMonday   : 5A\tf\t6A\t7B\tr\t8A\t7A\t6A\tf   <- today\nTuesday  : 5A\t6A\tf\tf\tr\t5A\t6A\tf\t7B\t\nWednesday: 5A\t7A\t6A\tf\tr\t7B\t5B\tf\t6A\t\nThursday : f\t7B\tf\t3C\tr\t6A\t5A\tf\t7A\t\nFriday   : 5A\tf\t7C\t6A\tr\tf\t5A\tf\tf\t\nSaturday : f\t7B\t5A\tf\tr\t7A\t8A\tf\t6A"
p342
sg17
S'Narendra Gandhi'
p343
sg19
(lp344
(lp345
S'5a'
p346
ag339
aS'6a'
p347
aS'7b'
p348
aS'8a'
p349
aS'7a'
p350
aS'6a'
p351
aS'f'
p352
aa(lp353
S'5a'
p354
aS'6a'
p355
aS'f'
p356
aS'f'
p357
aS'5a'
p358
aS'6a'
p359
aS'f'
p360
aS'7b'
p361
aa(lp362
S'5a'
p363
aS'7a'
p364
aS'6a'
p365
aS'f'
p366
aS'7b'
p367
aS'5b'
p368
aS'f'
p369
aS'6a'
p370
aa(lp371
S'f'
p372
aS'7b'
p373
aS'f'
p374
aS'3c'
p375
aS'6a'
p376
aS'5a'
p377
aS'f'
p378
aS'7a'
p379
aa(lp380
S'5a'
p381
aS'f'
p382
aS'7c'
p383
aS'6a'
p384
aS'f'
p385
aS'5a'
p386
aS'f'
p387
aS'f'
p388
aa(lp389
S'f'
p390
aS'7b'
p391
aS'5a'
p392
aS'f'
p393
aS'7a'
p394
aS'8a'
p395
aS'f'
p396
aS'6a'
p397
aasg74
S'male'
p398
sg76
g346
sg77
I01
sg78
g345
sg79
S"Note:'*' denotes that Narendra is free in, or somewhere around library.\n\nSession:1\x0e\t2\t\t3\t4\tRECESS\t5\t6\t7\t8\t\t\nStatus :5A \t10A(proxy) \t6A \t7B \tGROUND\t8A \t7A \t6A \tlibrary* \t"
p399
sg81
(lp400
S'5'
p401
aS'6'
p402
aS'7'
p403
aS'8'
p404
asg89
S'ground'
p405
sg91
g338
sg92
S'library'
p406
sg94
g340
sg95
(lp407
(lp408
g335
a(i__main__
Teacher
p409
(dp410
g6
S'She is absent today.'
p411
sg8
(dp412
I0
I00
sI1
g335
sI2
I00
sI3
I00
sI4
I00
sI5
I00
sI6
I00
sI7
I00
ssg11
S'Sonia'
p413
sg13
S'Singh'
p414
sg15
S"Note: 'f' stands for free session and 'r' stands for recess.\n\nSession  : 1\t2\t3\t4\tr\t5\t6\t7\t8\t\n________________________________________________________________________________\n\nMonday   : 10A\t10A\t11S\tf\tr\t12S\t9C\t10C\tf   <- today\nTuesday  : 10A\t12S\t12S\t11S\tr\tf\tf\t10B\t11S\t\nWednesday: 11S\t11S\t10A\t10B\tr\tf\t9B\tf\tf\t\nThursday : 10C\t11S\t12S\tf\tr\tf\t10A\t12S\t12S\t\nFriday   : f\t11S\t9A\t12S\tr\t11S\tf\t12S\t12S\t\nSaturday : f\tf\t11S\t11S\tr\t12S\t12S\tf\tf"
p415
sg17
S'Sonia Singh'
p416
sg19
(lp417
(lp418
S'10a'
p419
ag339
aS'11s'
p420
aS'f'
p421
aS'12s'
p422
aS'9c'
p423
aS'10c'
p424
aS'f'
p425
aa(lp426
S'10a'
p427
aS'12s'
p428
aS'12s'
p429
aS'11s'
p430
aS'f'
p431
aS'f'
p432
aS'10b'
p433
aS'11s'
p434
aa(lp435
S'11s'
p436
aS'11s'
p437
aS'10a'
p438
aS'10b'
p439
aS'f'
p440
aS'9b'
p441
aS'f'
p442
aS'f'
p443
aa(lp444
S'10c'
p445
aS'11s'
p446
aS'12s'
p447
aS'f'
p448
aS'f'
p449
aS'10a'
p450
aS'12s'
p451
aS'12s'
p452
aa(lp453
S'f'
p454
aS'11s'
p455
aS'9a'
p456
aS'12s'
p457
aS'11s'
p458
aS'f'
p459
aS'12s'
p460
aS'12s'
p461
aa(lp462
S'f'
p463
aS'f'
p464
aS'11s'
p465
aS'11s'
p466
aS'12s'
p467
aS'12s'
p468
aS'f'
p469
aS'f'
p470
aasg74
S'female'
p471
sg77
I00
sg78
g418
sg79
S'(She is absent today.)\n\nSession:1\x0e\t2\t3\t4\t\tRECESS\t\t5\t6\t7\t8\t\t\nStatus :10A \t10A \t11S \tchemistry lab \tCHEMISTRY LAB\t12S \t9C \t10C \tchemistry lab \t'
p472
sg81
(lp473
S'10'
p474
aS'11'
p475
aS'12'
p476
aS'9'
p477
asg89
S'chemistry lab'
p478
sg91
g412
sg92
S'chemistry lab'
p479
sg94
g416
sg95
(lp480
g408
asg176
(lp481
S'chemistry'
p482
asg180
(dp483
sbag339
aI1
aasg176
(lp484
S'Gujarati'
p485
aS'Spanish'
p486
asg180
(dp487
sbag102
ag182
asS'pres_teachers'
p488
(lp489
g335
ag4
ag182
ag102
asS'abs_teachers'
p490
(lp491
g98
ag409
asS'custom_proxies'
p492
(lp493
sS'removed_proxies'
p494
(lp495
sS's_proxies'
p496
(lp497
g97
a(lp498
g4
ag409
ag419
aI0
aag408
ag175
a(lp499
g102
ag409
ag422
aI4
aag255
a(lp500
g182
ag409
ag423
aI5
aasS'gen_proxies'
p501
(lp502
g97
ag408
ag175
ag255
asS'clamoni'
p503
(dp504
g266
(lp505
I2
asg267
(lp506
I3
asg268
(lp507
I6
asg424
(lp508
I6
asg423
(lp509
I5
asg419
(lp510
I0
asg422
(lp511
I4
asg420
(lp512
I2
assS'teachers'
p513
(lp514
g98
ag4
ag102
ag182
ag335
ag409
asS'comp_proxies'
p515
(lp516
g97
ag408
ag175
ag255
asg95
(lp517
g97
ag408
ag175
ag255
asb.