(i__main__
Stats
p0
(dp1
S'proxy_teachers'
p2
(lp3
(i__main__
Teacher
p4
(dp5
S'status'
p6
S'He is most probably in class 7A.'
p7
sS'assigned'
p8
(dp9
I0
I00
sI1
S'10c'
p10
sI2
I00
sI3
I00
sI4
S'3c'
p11
sI5
I00
sI6
I00
sI7
I00
ssS'first_name'
p12
S'Mulayam'
p13
sS'last_name'
p14
S'Modi'
p15
sS'sched'
p16
S"Note: 'f' stands for free session and 'r' stands for recess.\n\nSession  : 1\t2\t3\t4\tr\t5\t6\t7\t8\t\n________________________________________________________________________________\n\nMonday   : 8B\tf\t7C\t11C\tr\t11C\t7C\t7A\tf\t\nTuesday  : 8B\t11C\t9A\tf\tr\t8B\t7C\t7A\tf\t\nWednesday: 8B\t7C\tf\t10C\tr\tf\t11C\t7A\tf\t\nThursday : 8B\t8B\t11C\tf\tr\t7C\t7A\tf\t11C\t\nFriday   : 8B\tf\t7A\t7C\tr\tf\t8B\t11C\t11C   <- today\nSaturday : 7A\t11C\tf\t7C\tr\t7C\t10C\tf\t9A"
p17
sS'name'
p18
S'Mulayam Modi'
p19
sS'schedule'
p20
(lp21
(lp22
S'8b'
p23
aS'f'
p24
aS'7c'
p25
aS'11c'
p26
aS'11c'
p27
aS'7c'
p28
aS'7a'
p29
aS'f'
p30
aa(lp31
S'8b'
p32
aS'11c'
p33
aS'9a'
p34
aS'f'
p35
aS'8b'
p36
aS'7c'
p37
aS'7a'
p38
aS'f'
p39
aa(lp40
S'8b'
p41
aS'7c'
p42
aS'f'
p43
aS'10c'
p44
aS'f'
p45
aS'11c'
p46
aS'7a'
p47
aS'f'
p48
aa(lp49
S'8b'
p50
aS'8b'
p51
aS'11c'
p52
aS'f'
p53
aS'7c'
p54
aS'7a'
p55
aS'f'
p56
aS'11c'
p57
aa(lp58
S'8b'
p59
ag10
aS'7a'
p60
aS'7c'
p61
ag11
aS'8b'
p62
aS'11c'
p63
aS'11c'
p64
aa(lp65
S'7a'
p66
aS'11c'
p67
aS'f'
p68
aS'7c'
p69
aS'7c'
p70
aS'10c'
p71
aS'f'
p72
aS'9a'
p73
aasS'gender'
p74
S'male'
p75
sS'pres_pos'
p76
g60
sS'is_present'
p77
I01
sS'today_sched'
p78
g58
sS'tod_sched'
p79
S'Session:1\t2\t\t3\x0e\t4\tRECESS\t\t5\t\t6\t7\t8\t\nStatus :8B \t10C(proxy) \t7A \t7C \tSTAFF ROOM\t3C(proxy) \t8B \t11C \t11C \t'
p80
sS'classes'
p81
(lp82
S'10'
p83
aS'11'
p84
aS'7'
p85
aS'8'
p86
aS'9'
p87
asS'recess_pos'
p88
S'staff room'
p89
sS'saved_assignments'
p90
g9
sS'free_pos'
p91
S'library'
p92
sS'title_name'
p93
g13
sS'proxies'
p94
(lp95
(lp96
g4
a(i__main__
Teacher
p97
(dp98
g6
S'She is absent today.'
p99
sg8
(dp100
I0
I00
sI1
g4
sI2
I00
sI3
I00
sI4
I00
sI5
(i__main__
Teacher
p101
(dp102
g6
S'She is most probably in class 9A.'
p103
sg8
(dp104
I0
I00
sI1
I00
sI2
I00
sI3
I00
sI4
I00
sI5
S'12s'
p105
sI6
I00
sI7
I00
ssg12
S'Sonia'
p106
sg14
S'Singh'
p107
sg16
S"Note: 'f' stands for free session and 'r' stands for recess.\n\nSession  : 1\t2\t3\t4\tr\t5\t6\t7\t8\t\n________________________________________________________________________________\n\nMonday   : 10A\t10A\t11S\tf\tr\t12S\t9C\t10C\tf\t\nTuesday  : 10A\t12S\t12S\t11S\tr\tf\tf\t10B\t11S\t\nWednesday: 11S\t11S\t10A\t10B\tr\tf\t9B\tf\tf\t\nThursday : 10C\t11S\t12S\tf\tr\tf\t10A\t12S\t12S\t\nFriday   : f\t11S\t9A\t12S\tr\t11S\tf\t12S\t12S   <- today\nSaturday : f\tf\t11S\t11S\tr\t12S\t12S\tf\tf"
p108
sg18
S'Sonia Singh'
p109
sg20
(lp110
(lp111
S'10a'
p112
aS'10a'
p113
aS'11s'
p114
aS'f'
p115
aS'12s'
p116
aS'9c'
p117
aS'10c'
p118
aS'f'
p119
aa(lp120
S'10a'
p121
aS'12s'
p122
aS'12s'
p123
aS'11s'
p124
aS'f'
p125
aS'f'
p126
aS'10b'
p127
aS'11s'
p128
aa(lp129
S'11s'
p130
aS'11s'
p131
aS'10a'
p132
aS'10b'
p133
aS'f'
p134
aS'9b'
p135
aS'f'
p136
aS'f'
p137
aa(lp138
S'10c'
p139
aS'11s'
p140
aS'12s'
p141
aS'f'
p142
aS'f'
p143
aS'10a'
p144
aS'12s'
p145
aS'12s'
p146
aa(lp147
S'f'
p148
aS'11s'
p149
aS'9a'
p150
aS'12s'
p151
aS'11s'
p152
ag105
aS'12s'
p153
aS'12s'
p154
aa(lp155
S'f'
p156
aS'f'
p157
aS'11s'
p158
aS'11s'
p159
aS'12s'
p160
aS'12s'
p161
aS'f'
p162
aS'f'
p163
aasg74
S'female'
p164
sg76
g150
sg77
I01
sg78
g147
sg79
S"Note:'*' denotes that Sonia is free in, or somewhere around chemistry lab.\n\nSession:1\t\t2\t3\x0e\t4\tRECESS\t\t5\t6\t\t7\t8\t\nStatus :chemistry lab* \t11S \t9A \t12S \tCHEMISTRY LAB\t11S \t12S(proxy) \t12S \t12S \t"
p165
sg81
(lp166
S'10'
p167
aS'11'
p168
aS'12'
p169
aS'9'
p170
asg88
S'chemistry lab'
p171
sg90
g104
sg91
S'chemistry lab'
p172
sg93
g109
sg94
(lp173
(lp174
g101
ag97
ag105
aI5
aasS'subjects'
p175
(lp176
S'chemistry'
p177
asS'history'
p178
(dp179
sbsI6
(i__main__
Teacher
p180
(dp181
g6
S'He is most probably in class 7C.'
p182
sg8
(dp183
I0
I00
sI1
S'5a'
p184
sI2
I00
sI3
I00
sI4
I00
sI5
I00
sI6
S'11s'
p185
sI7
I00
ssg12
S'Narendra'
p186
sg14
S'Gandhi'
p187
sg16
S"Note: 'f' stands for free session and 'r' stands for recess.\n\nSession  : 1\t2\t3\t4\tr\t5\t6\t7\t8\t\n________________________________________________________________________________\n\nMonday   : 5A\tf\t6A\t7B\tr\t8A\t7A\t6A\tf\t\nTuesday  : 5A\t6A\tf\tf\tr\t5A\t6A\tf\t7B\t\nWednesday: 5A\t7A\t6A\tf\tr\t7B\t5B\tf\t6A\t\nThursday : f\t7B\tf\t3C\tr\t6A\t5A\tf\t7A\t\nFriday   : 5A\tf\t7C\t6A\tr\tf\t5A\tf\tf   <- today\nSaturday : f\t7B\t5A\tf\tr\t7A\t8A\tf\t6A"
p188
sg18
S'Narendra Gandhi'
p189
sg20
(lp190
(lp191
S'5a'
p192
aS'f'
p193
aS'6a'
p194
aS'7b'
p195
aS'8a'
p196
aS'7a'
p197
aS'6a'
p198
aS'f'
p199
aa(lp200
S'5a'
p201
aS'6a'
p202
aS'f'
p203
aS'f'
p204
aS'5a'
p205
aS'6a'
p206
aS'f'
p207
aS'7b'
p208
aa(lp209
S'5a'
p210
aS'7a'
p211
aS'6a'
p212
aS'f'
p213
aS'7b'
p214
aS'5b'
p215
aS'f'
p216
aS'6a'
p217
aa(lp218
S'f'
p219
aS'7b'
p220
aS'f'
p221
aS'3c'
p222
aS'6a'
p223
aS'5a'
p224
aS'f'
p225
aS'7a'
p226
aa(lp227
S'5a'
p228
ag184
aS'7c'
p229
aS'6a'
p230
aS'f'
p231
aS'5a'
p232
ag185
aS'f'
p233
aa(lp234
S'f'
p235
aS'7b'
p236
aS'5a'
p237
aS'f'
p238
aS'7a'
p239
aS'8a'
p240
aS'f'
p241
aS'6a'
p242
aasg74
S'male'
p243
sg76
g229
sg77
I01
sg78
g227
sg79
S"Note:'*' denotes that Narendra is free in, or somewhere around library.\n\nSession:1\t2\t\t3\x0e\t4\tRECESS\t5\t\t6\t7\t\t8\t\t\nStatus :5A \t5A(proxy) \t7C \t6A \tGROUND\tlibrary* \t5A \t11S(proxy) \tlibrary* \t"
p244
sg81
(lp245
S'5'
p246
aS'6'
p247
aS'7'
p248
aS'8'
p249
asg88
S'ground'
p250
sg90
g183
sg91
S'library'
p251
sg93
g186
sg94
(lp252
(lp253
g180
a(i__main__
Teacher
p254
(dp255
g6
S'He is absent today.'
p256
sg8
(dp257
I0
I00
sI1
g180
sI2
I00
sI3
I00
sI4
g4
sI5
I00
sI6
I00
sI7
I00
ssg12
S'Rahul'
p258
sg14
S'Yadav'
p259
sg16
S"Note: 'f' stands for free session and 'r' stands for recess.\n\nSession  : 1\t2\t3\t4\tr\t5\t6\t7\t8\t\n________________________________________________________________________________\n\nMonday   : f\t6B\t4A\t5C\tr\t1A\t2A\t3A\tf\t\nTuesday  : f\tf\t2C\t1A\tr\t3A\t5A\t1B\t4C\t\nWednesday: f\t1C\t4B\t4A\tr\t4C\t7B\tf\t3C\t\nThursday : f\t3B\t2A\t2B\tr\tf\t6A\t5C\t7C\t\nFriday   : f\t5A\t7B\t2C\tr\t3C\t6C\t5B\tf   <- today\nSaturday : f\t1C\t4B\t2B\tr\tf\t5B\t3B\t7A"
p260
sg18
S'Rahul Yadav'
p261
sg20
(lp262
(lp263
S'f'
p264
aS'6b'
p265
aS'4a'
p266
aS'5c'
p267
aS'1a'
p268
aS'2a'
p269
aS'3a'
p270
aS'f'
p271
aa(lp272
S'f'
p273
aS'f'
p274
aS'2c'
p275
aS'1a'
p276
aS'3a'
p277
aS'5a'
p278
aS'1b'
p279
aS'4c'
p280
aa(lp281
S'f'
p282
aS'1c'
p283
aS'4b'
p284
aS'4a'
p285
aS'4c'
p286
aS'7b'
p287
aS'f'
p288
aS'3c'
p289
aa(lp290
S'f'
p291
aS'3b'
p292
aS'2a'
p293
aS'2b'
p294
aS'f'
p295
aS'6a'
p296
aS'5c'
p297
aS'7c'
p298
aa(lp299
S'f'
p300
ag184
aS'7b'
p301
aS'2c'
p302
ag11
aS'6c'
p303
aS'5b'
p304
aS'f'
p305
aa(lp306
S'f'
p307
aS'1c'
p308
aS'4b'
p309
aS'2b'
p310
aS'f'
p311
aS'5b'
p312
aS'3b'
p313
aS'7a'
p314
aasg74
S'male'
p315
sg77
I00
sg78
g299
sg79
S'(He is absent today.)\n\nSession:1\t\t2\t3\x0e\t4\tRECESS\t\t5\t6\t7\t8\t\t\nStatus :music room \t5A \t7B \t2C \tSTAFF ROOM\t3C \t6C \t5B \tmusic room \t'
p316
sg81
(lp317
S'1'
p318
aS'2'
p319
aS'3'
p320
aS'4'
p321
aS'5'
p322
aS'6'
p323
asg88
S'staff room'
p324
sg90
g257
sg91
S'music room'
p325
sg93
g258
sg94
(lp326
g253
a(lp327
g4
ag254
ag11
aI4
aasg175
(lp328
S'Civics'
p329
aS'Music'
p330
asg178
(dp331
sbag184
aI1
aa(lp332
g180
ag97
ag185
aI6
aasg175
(lp333
S'Gujarati'
p334
aS'Spanish'
p335
asg178
(dp336
sbsI7
(i__main__
Teacher
p337
(dp338
g6
S'He is most probably in class 9B.'
p339
sg8
(dp340
I0
I00
sI1
I00
sI2
I00
sI3
I00
sI4
I00
sI5
I00
sI6
I00
sI7
S'11s'
p341
ssg12
S'Albert'
p342
sg14
S'Newton'
p343
sg16
S"Note: 'f' stands for free session and 'r' stands for recess.\n\nSession  : 1\t2\t3\t4\tr\t5\t6\t7\t8\t\n________________________________________________________________________________\n\nMonday   : 9A\t9B\t10A\t10B\tr\tf\t11S\t12S\tf\t\nTuesday  : 10B\t10A\tf\tf\tr\t9A\t12S\t12S\tf\t\nWednesday: 10B\t12S\t10B\tf\tr\tf\t9A\tf\t10A\t\nThursday : 11S\t10A\t10B\t11S\tr\t12S\t9B\tf\tf\t\nFriday   : f\t9A\t9B\t10A\tr\t10B\t11S\t10A\tf   <- today\nSaturday : f\t12S\t10A\t10B\tr\t9A\t9B\t12S\tf"
p344
sg18
S'Albert Newton'
p345
sg20
(lp346
(lp347
S'9a'
p348
aS'9b'
p349
aS'10a'
p350
aS'10b'
p351
aS'f'
p352
aS'11s'
p353
aS'12s'
p354
aS'f'
p355
aa(lp356
S'10b'
p357
aS'10a'
p358
aS'f'
p359
aS'f'
p360
aS'9a'
p361
aS'12s'
p362
aS'12s'
p363
aS'f'
p364
aa(lp365
S'10b'
p366
aS'12s'
p367
aS'10b'
p368
aS'f'
p369
aS'f'
p370
aS'9a'
p371
aS'f'
p372
aS'10a'
p373
aa(lp374
S'11s'
p375
aS'10a'
p376
aS'10b'
p377
aS'11s'
p378
aS'12s'
p379
aS'9b'
p380
aS'f'
p381
aS'f'
p382
aa(lp383
S'f'
p384
aS'9a'
p385
aS'9b'
p386
aS'10a'
p387
aS'10b'
p388
aS'11s'
p389
aS'10a'
p390
ag341
aa(lp391
S'f'
p392
aS'12s'
p393
aS'10a'
p394
aS'10b'
p395
aS'9a'
p396
aS'9b'
p397
aS'12s'
p398
aS'f'
p399
aasg74
S'male'
p400
sg76
g386
sg77
I01
sg78
g383
sg79
S"Note:'*' denotes that Albert is free in, or somewhere around physics lab.\n\nSession:1\t\t2\t3\x0e\t4\tRECESS\t5\t6\t7\t8\t\t\nStatus :physics lab* \t9A \t9B \t10A \tGROUND\t10B \t11S \t10A \t11S(proxy) \t"
p401
sg81
(lp402
S'10'
p403
aS'11'
p404
aS'12'
p405
aS'9'
p406
asg88
S'ground'
p407
sg90
g340
sg91
S'physics lab'
p408
sg93
g342
sg94
(lp409
(lp410
g337
ag97
ag341
aI7
aasg175
(lp411
S' maths'
p412
aS'physics'
p413
asg178
(dp414
sbssg12
S'Sonia'
p415
sg14
S'Yadav'
p416
sg16
S"Note: 'f' stands for free session and 'r' stands for recess.\n\nSession  : 1\t2\t3\t4\tr\t5\t6\t7\t8\t\n________________________________________________________________________________\n\nMonday   : 10B\t10B\t12S\t11S\tr\t11S\tf\t10A\t10A\t\nTuesday  : f\t11S\tf\t12S\tr\t12S\tf\t9B\t9B\t\nWednesday: 9C\t9C\t12S\tf\tr\t9B\t11S\tf\tf\t\nThursday : 12S\t12S\t11S\tf\tr\t9A\t9A\t10B\t11S\t\nFriday   : f\t10C\t10C\t9A\tr\tf\t12S\t11S\t11S   <- today\nSaturday : f\t11S\t12S\t12S\tr\t9C\tf\t10C\t10A"
p417
sg18
S'Sonia Yadav'
p418
sg20
(lp419
(lp420
S'10b'
p421
aS'10b'
p422
aS'12s'
p423
aS'11s'
p424
aS'11s'
p425
aS'f'
p426
aS'10a'
p427
aS'10a'
p428
aa(lp429
S'f'
p430
aS'11s'
p431
aS'f'
p432
aS'12s'
p433
aS'12s'
p434
aS'f'
p435
aS'9b'
p436
aS'9b'
p437
aa(lp438
S'9c'
p439
aS'9c'
p440
aS'12s'
p441
aS'f'
p442
aS'9b'
p443
aS'11s'
p444
aS'f'
p445
aS'f'
p446
aa(lp447
S'12s'
p448
aS'12s'
p449
aS'11s'
p450
aS'f'
p451
aS'9a'
p452
aS'9a'
p453
aS'10b'
p454
aS'11s'
p455
aa(lp456
S'f'
p457
ag10
aS'10c'
p458
aS'9a'
p459
aS'f'
p460
ag105
ag185
ag341
aa(lp461
S'f'
p462
aS'11s'
p463
aS'12s'
p464
aS'12s'
p465
aS'9c'
p466
aS'f'
p467
aS'10c'
p468
aS'10a'
p469
aasg74
S'female'
p470
sg77
I00
sg78
g456
sg79
S'(She is absent today.)\n\nSession:1\t\t2\t3\x0e\t4\tRECESS\t5\t\t6\t7\t8\t\nStatus :biology lab \t10C \t10C \t9A \tGROUND\tbiology lab \t12S \t11S \t11S \t'
p471
sg81
(lp472
S'10'
p473
aS'11'
p474
aS'12'
p475
aS'9'
p476
asg88
S'ground'
p477
sg90
g100
sg91
S'biology lab'
p478
sg93
g418
sg94
(lp479
g96
ag174
ag332
ag410
asg175
(lp480
S'biology'
p481
asg178
(dp482
sbag10
aI1
aag327
asg175
(lp483
S'economics'
p484
aS'hindi'
p485
aS'social science'
p486
asg178
(dp487
sbag180
ag101
ag337
asS'pres_teachers'
p488
(lp489
g4
ag101
ag337
ag180
asS'abs_teachers'
p490
(lp491
g97
ag254
asS'custom_proxies'
p492
(lp493
sS'removed_proxies'
p494
(lp495
sS's_proxies'
p496
(lp497
g96
a(lp498
g180
ag97
ag10
aI1
aa(lp499
g4
ag254
ag184
aI1
aag253
ag327
a(lp500
g180
ag254
ag11
aI4
aag174
a(lp501
g101
ag254
ag303
aI5
aag332
a(lp502
g180
ag254
ag304
aI6
aag410
a(lp503
g180
ag97
ag341
aI7
aasS'gen_proxies'
p504
(lp505
g96
ag253
ag327
ag174
ag332
ag410
asS'clamoni'
p506
(dp507
g303
(lp508
I5
asg301
(lp509
I2
asg459
(lp510
I3
asg10
(lp511
I2
asg302
(lp512
I3
asg304
(lp513
I6
assS'teachers'
p514
(lp515
g254
ag97
ag101
ag337
ag4
ag180
asS'comp_proxies'
p516
(lp517
g96
ag253
ag327
ag174
ag332
ag410
asg94
(lp518
g96
ag253
ag327
ag174
ag332
ag410
asb.