(i__main__
Teacher
p0
(dp1
S'status'
p2
S'She'
p3
sS'assigned'
p4
(dp5
I0
I00
sI1
I00
sI2
I00
sI3
I00
sI4
I00
sI5
I00
sI6
I00
sI7
I00
ssS'first_name'
p6
S'Sonia'
p7
sS'last_name'
p8
S'Yadav'
p9
sS'sched'
p10
S"Note: 'f' stands for free session and 'r' stands for recess.\n\nMonday: 10b, 10b, 12s, 11s, r, 11s, f, 10a, 10aTuesday: f, 11s, f, 12s, r, 12s, f, 9b, 9bWednesday: 9c, 9c, 12s, f, r, 9b, 11s, f, fThursday: 12s, 12s, 11s, f, r, 9a, 9a, 10b, 11sFriday: f, 10c, 10c, 9a, r, f, 12s, 11s, 11sSaturday: f, 11s, 12s, 12s, r, 9c, f, 10c, 10a"
p11
sS'name'
p12
S'Sonia Yadav'
p13
sS'schedule'
p14
(lp15
(lp16
S'10b'
p17
aS'10b'
p18
aS'12s'
p19
aS'11s'
p20
aS'11s'
p21
aS'f'
p22
aS'10a'
p23
aS'10a'
p24
aa(lp25
S'f'
p26
aS'11s'
p27
aS'f'
p28
aS'12s'
p29
aS'12s'
p30
aS'f'
p31
aS'9b'
p32
aS'9b'
p33
aa(lp34
S'9c'
p35
aS'9c'
p36
aS'12s'
p37
aS'f'
p38
aS'9b'
p39
aS'11s'
p40
aS'f'
p41
aS'f'
p42
aa(lp43
S'12s'
p44
aS'12s'
p45
aS'11s'
p46
aS'f'
p47
aS'9a'
p48
aS'9a'
p49
aS'10b'
p50
aS'11s'
p51
aa(lp52
S'f'
p53
aS'10c'
p54
aS'10c'
p55
aS'9a'
p56
aS'f'
p57
aS'12s'
p58
aS'11s'
p59
aS'11s'
p60
aa(lp61
S'f'
p62
aS'11s'
p63
aS'12s'
p64
aS'12s'
p65
aS'9c'
p66
aS'f'
p67
aS'10c'
p68
aS'10a'
p69
aasS'gender'
p70
S'female'
p71
sS'is_present'
p72
I01
sS'today_sched'
p73
g43
sS'classes'
p74
(lp75
S'10'
p76
aS'11'
p77
aS'12'
p78
aS'9'
p79
asS'recess_pos'
p80
S'ground'
p81
sS'free_pos'
p82
S'biology lab'
p83
sS'subjects'
p84
(lp85
S'biology'
p86
asS'history'
p87
(dp88
sb.